((dp0
S'OS'
p1
S'Linux'
p2
sS'region'
p3
S'us-east-1'
p4
sS'AZ'
p5
S'e'
p6
sS'type'
p7
S'm3.medium'
p8
s(lp9
(V2015-03-12 05:59:46+00:00
p10
F0.0081
tp11
a(V2015-03-13 06:00:32+00:00
p12
F0.0081
tp13
a(V2015-03-13 15:06:09+00:00
p14
F0.0082
tp15
a(V2015-03-13 16:21:36+00:00
p16
F0.0081
tp17
a(V2015-03-14 16:25:59+00:00
p18
F0.0081
tp19
a(V2015-03-15 16:27:24+00:00
p20
F0.0081
tp21
a(V2015-03-16 16:30:44+00:00
p22
F0.0081
tp23
a(V2015-03-16 18:12:39+00:00
p24
F0.0082
tp25
a(V2015-03-16 19:03:57+00:00
p26
F0.0083
tp27
a(V2015-03-16 19:11:40+00:00
p28
F0.0082
tp29
a(V2015-03-16 20:38:03+00:00
p30
F0.0081
tp31
a(V2015-03-17 20:41:46+00:00
p32
F0.0081
tp33
a(V2015-03-18 13:41:47+00:00
p34
F0.0082
tp35
a(V2015-03-18 16:02:11+00:00
p36
F0.0081
tp37
a(V2015-03-18 20:25:44+00:00
p38
F0.0082
tp39
a(V2015-03-18 20:32:14+00:00
p40
F0.0083
tp41
a(V2015-03-18 20:38:52+00:00
p42
F0.0084
tp43
a(V2015-03-18 20:45:28+00:00
p44
F0.0083
tp45
a(V2015-03-18 21:04:53+00:00
p46
F0.0082
tp47
a(V2015-03-18 21:11:26+00:00
p48
F0.0081
tp49
a(V2015-03-19 15:18:51+00:00
p50
F0.0082
tp51
a(V2015-03-19 15:25:04+00:00
p52
F0.0083
tp53
a(V2015-03-19 15:31:33+00:00
p54
F0.0082
tp55
a(V2015-03-19 15:37:52+00:00
p56
F0.0083
tp57
a(V2015-03-19 16:04:11+00:00
p58
F0.0081
tp59
a(V2015-03-19 16:35:36+00:00
p60
F0.0082
tp61
a(V2015-03-19 16:42:05+00:00
p62
F0.0081
tp63
a(V2015-03-19 16:54:57+00:00
p64
F0.0082
tp65
a(V2015-03-19 17:08:22+00:00
p66
F0.0081
tp67
a(V2015-03-19 17:47:29+00:00
p68
F0.0082
tp69
a(V2015-03-19 21:03:17+00:00
p70
F0.0081
tp71
a(V2015-03-20 18:45:27+00:00
p72
F0.0082
tp73
a(V2015-03-20 18:58:07+00:00
p74
F0.0081
tp75
a(V2015-03-20 19:10:52+00:00
p76
F0.0082
tp77
a(V2015-03-20 19:29:07+00:00
p78
F0.0081
tp79
a(V2015-03-20 20:37:30+00:00
p80
F0.0082
tp81
a(V2015-03-20 20:43:56+00:00
p82
F0.0081
tp83
a(V2015-03-20 20:56:32+00:00
p84
F0.0082
tp85
a(V2015-03-20 21:02:42+00:00
p86
F0.0081
tp87
a(V2015-03-21 21:03:15+00:00
p88
F0.0081
tp89
a(V2015-03-22 21:08:42+00:00
p90
F0.0081
tp91
a(V2015-03-23 14:17:52+00:00
p92
F0.0082
tp93
a(V2015-03-23 14:24:00+00:00
p94
F0.0081
tp95
a(V2015-03-23 19:06:47+00:00
p96
F0.0082
tp97
a(V2015-03-23 19:13:27+00:00
p98
F0.0081
tp99
a(V2015-03-23 19:35:40+00:00
p100
F0.0082
tp101
a(V2015-03-23 19:46:57+00:00
p102
F0.0081
tp103
a(V2015-03-24 15:59:03+00:00
p104
F0.0082
tp105
a(V2015-03-24 16:17:27+00:00
p106
F0.0081
tp107
a(V2015-03-24 18:00:04+00:00
p108
F0.0082
tp109
a(V2015-03-24 18:41:04+00:00
p110
F0.0083
tp111
a(V2015-03-24 19:04:59+00:00
p112
F0.0082
tp113
a(V2015-03-24 19:10:55+00:00
p114
F0.0083
tp115
a(V2015-03-24 20:04:33+00:00
p116
F0.0082
tp117
a(V2015-03-24 21:15:21+00:00
p118
F0.0081
tp119
a(V2015-03-25 14:33:40+00:00
p120
F0.0082
tp121
a(V2015-03-25 14:39:56+00:00
p122
F0.0081
tp123
a(V2015-03-25 17:57:53+00:00
p124
F0.0082
tp125
a(V2015-03-25 18:22:01+00:00
p126
F0.0081
tp127
a(V2015-03-26 13:02:03+00:00
p128
F0.0082
tp129
a(V2015-03-26 14:33:48+00:00
p130
F0.0083
tp131
a(V2015-03-26 14:39:47+00:00
p132
F0.0082
tp133
a(V2015-03-26 15:47:27+00:00
p134
F0.0083
tp135
a(V2015-03-26 15:59:15+00:00
p136
F0.0082
tp137
a(V2015-03-26 16:04:25+00:00
p138
F0.0083
tp139
a(V2015-03-26 16:09:30+00:00
p140
F0.0082
tp141
a(V2015-03-26 18:05:34+00:00
p142
F0.0083
tp143
a(V2015-03-26 18:11:26+00:00
p144
F0.0082
tp145
a(V2015-03-26 18:17:23+00:00
p146
F0.0083
tp147
a(V2015-03-26 18:29:09+00:00
p148
F0.0082
tp149
a(V2015-03-26 18:35:07+00:00
p150
F0.0085
tp151
a(V2015-03-26 18:41:08+00:00
p152
F0.0086
tp153
a(V2015-03-26 18:47:11+00:00
p154
F0.0084
tp155
a(V2015-03-26 18:53:06+00:00
p156
F0.0083
tp157
a(V2015-03-26 19:11:10+00:00
p158
F0.0082
tp159
a(V2015-03-26 19:17:20+00:00
p160
F0.0083
tp161
a(V2015-03-26 19:23:23+00:00
p162
F0.0082
tp163
a(V2015-03-26 20:59:49+00:00
p164
F0.0081
tp165
a(V2015-03-27 13:05:08+00:00
p166
F0.0082
tp167
a(V2015-03-27 16:27:32+00:00
p168
F0.0081
tp169
a(V2015-03-27 17:05:39+00:00
p170
F0.0082
tp171
a(V2015-03-27 19:08:27+00:00
p172
F0.0081
tp173
a(V2015-03-28 19:10:18+00:00
p174
F0.0081
tp175
a(V2015-03-29 19:14:44+00:00
p176
F0.0081
tp177
a(V2015-03-30 14:02:29+00:00
p178
F0.0082
tp179
a(V2015-03-30 14:18:51+00:00
p180
F0.0081
tp181
a(V2015-03-31 14:22:46+00:00
p182
F0.0081
tp183
a(V2015-03-31 15:16:36+00:00
p184
F0.0082
tp185
a(V2015-03-31 15:52:41+00:00
p186
F0.0081
tp187
a(V2015-03-31 16:28:21+00:00
p188
F0.0082
tp189
a(V2015-03-31 16:40:38+00:00
p190
F0.0081
tp191
a(V2015-03-31 18:04:50+00:00
p192
F0.0082
tp193
a(V2015-03-31 21:00:02+00:00
p194
F0.0081
tp195
a(V2015-04-01 13:05:02+00:00
p196
F0.0082
tp197
a(V2015-04-01 16:15:09+00:00
p198
F0.0081
tp199
a(V2015-04-01 17:30:37+00:00
p200
F0.0082
tp201
a(V2015-04-01 17:42:47+00:00
p202
F0.0081
tp203
a(V2015-04-01 17:55:18+00:00
p204
F0.0082
tp205
a(V2015-04-01 20:49:06+00:00
p206
F0.0081
tp207
a(V2015-04-01 22:20:46+00:00
p208
F0.0082
tp209
a(V2015-04-01 22:33:33+00:00
p210
F0.0081
tp211
a(V2015-04-02 02:33:34+00:00
p212
F0.0082
tp213
a(V2015-04-02 02:39:40+00:00
p214
F0.0081
tp215
a(V2015-04-02 13:04:54+00:00
p216
F0.0082
tp217
a(V2015-04-02 19:30:38+00:00
p218
F0.0083
tp219
a(V2015-04-02 19:36:41+00:00
p220
F0.0082
tp221
a(V2015-04-02 19:41:35+00:00
p222
F0.0083
tp223
a(V2015-04-02 19:46:56+00:00
p224
F0.0082
tp225
a(V2015-04-02 21:58:42+00:00
p226
F0.0081
tp227
a(V2015-04-03 08:11:32+00:00
p228
F0.0082
tp229
a(V2015-04-03 12:56:25+00:00
p230
F0.0081
tp231
a(V2015-04-03 13:30:47+00:00
p232
F0.0082
tp233
a(V2015-04-03 19:24:57+00:00
p234
F0.0081
tp235
a(V2015-04-03 20:18:22+00:00
p236
F0.0082
tp237
a(V2015-04-03 20:35:38+00:00
p238
F0.0081
tp239
a(V2015-04-04 20:37:38+00:00
p240
F0.0081
tp241
a(V2015-04-05 20:42:54+00:00
p242
F0.0081
tp243
a(V2015-04-06 18:33:02+00:00
p244
F0.0082
tp245
a(V2015-04-06 18:39:03+00:00
p246
F0.0081
tp247
a(V2015-04-06 19:53:50+00:00
p248
F0.0082
tp249
a(V2015-04-06 19:59:26+00:00
p250
F0.0083
tp251
a(V2015-04-06 20:05:31+00:00
p252
F0.0082
tp253
a(V2015-04-06 20:46:27+00:00
p254
F0.0081
tp255
a(V2015-04-06 20:52:15+00:00
p256
F0.0082
tp257
a(V2015-04-06 21:11:13+00:00
p258
F0.0081
tp259
a(V2015-04-06 23:36:53+00:00
p260
F0.0082
tp261
a(V2015-04-07 00:00:09+00:00
p262
F0.0081
tp263
a(V2015-04-07 00:18:11+00:00
p264
F0.0082
tp265
a(V2015-04-07 00:42:30+00:00
p266
F0.0081
tp267
a(V2015-04-07 00:53:57+00:00
p268
F0.0082
tp269
a(V2015-04-07 01:17:36+00:00
p270
F0.0081
tp271
a(V2015-04-07 01:46:04+00:00
p272
F0.0082
tp273
a(V2015-04-07 01:51:41+00:00
p274
F0.0081
tp275
a(V2015-04-07 05:04:13+00:00
p276
F0.0082
tp277
a(V2015-04-07 05:10:19+00:00
p278
F0.0081
tp279
a(V2015-04-07 08:02:41+00:00
p280
F0.0082
tp281
a(V2015-04-07 08:49:02+00:00
p282
F0.0081
tp283
a(V2015-04-07 18:15:42+00:00
p284
F0.0082
tp285
a(V2015-04-07 20:06:07+00:00
p286
F0.0081
tp287
a(V2015-04-08 00:43:47+00:00
p288
F0.0082
tp289
a(V2015-04-08 00:56:35+00:00
p290
F0.0083
tp291
a(V2015-04-08 01:03:07+00:00
p292
F0.0084
tp293
a(V2015-04-08 01:09:33+00:00
p294
F0.0085
tp295
a(V2015-04-08 01:15:55+00:00
p296
F0.0083
tp297
a(V2015-04-08 02:11:43+00:00
p298
F0.0082
tp299
a(V2015-04-08 13:03:08+00:00
p300
F0.0083
tp301
a(V2015-04-08 13:33:25+00:00
p302
F0.0082
tp303
a(V2015-04-08 13:39:40+00:00
p304
F0.0083
tp305
a(V2015-04-08 13:57:51+00:00
p306
F0.0084
tp307
a(V2015-04-08 15:19:15+00:00
p308
F0.0083
tp309
a(V2015-04-08 15:25:28+00:00
p310
F0.0084
tp311
a(V2015-04-08 15:44:04+00:00
p312
F0.0083
tp313
a(V2015-04-08 16:16:16+00:00
p314
F0.0082
tp315
a(V2015-04-08 16:28:35+00:00
p316
F0.0083
tp317
a(V2015-04-08 16:34:55+00:00
p318
F0.0082
tp319
a(V2015-04-08 16:47:31+00:00
p320
F0.0083
tp321
a(V2015-04-08 18:40:54+00:00
p322
F0.0084
tp323
a(V2015-04-08 18:54:43+00:00
p324
F0.0083
tp325
a(V2015-04-08 19:07:50+00:00
p326
F0.0084
tp327
a(V2015-04-08 19:21:29+00:00
p328
F0.0083
tp329
a(V2015-04-08 20:10:27+00:00
p330
F0.0082
tp331
a(V2015-04-08 22:54:14+00:00
p332
F0.0081
tp333
a(V2015-04-09 14:00:50+00:00
p334
F0.0082
tp335
a(V2015-04-09 14:07:03+00:00
p336
F0.0081
tp337
a(V2015-04-09 14:36:50+00:00
p338
F0.0082
tp339
a(V2015-04-09 14:42:47+00:00
p340
F0.0081
tp341
a(V2015-04-09 14:54:28+00:00
p342
F0.0082
tp343
a(V2015-04-09 15:00:23+00:00
p344
F0.0081
tp345
a(V2015-04-10 00:38:21+00:00
p346
F0.0082
tp347
a(V2015-04-10 00:44:42+00:00
p348
F0.0081
tp349
a(V2015-04-11 00:47:54+00:00
p350
F0.0081
tp351
a(V2015-04-12 00:48:08+00:00
p352
F0.0081
tp353
a(V2015-04-13 00:51:58+00:00
p354
F0.0081
tp355
a(V2015-04-13 19:23:46+00:00
p356
F0.0082
tp357
a(V2015-04-13 19:36:50+00:00
p358
F0.0081
tp359
a(V2015-04-14 13:20:32+00:00
p360
F0.0082
tp361
a(V2015-04-14 13:44:23+00:00
p362
F0.0081
tp363
a(V2015-04-15 12:49:53+00:00
p364
F0.0082
tp365
a(V2015-04-15 12:55:54+00:00
p366
F0.0081
tp367
a(V2015-04-15 13:14:06+00:00
p368
F0.0082
tp369
a(V2015-04-15 14:19:52+00:00
p370
F0.0081
tp371
a(V2015-04-16 14:22:31+00:00
p372
F0.0081
tp373
a(V2015-04-16 15:04:00+00:00
p374
F0.0082
tp375
a(V2015-04-16 15:09:58+00:00
p376
F0.0081
tp377
a(V2015-04-16 15:15:50+00:00
p378
F0.0082
tp379
a(V2015-04-16 15:21:46+00:00
p380
F0.0081
tp381
a(V2015-04-16 15:27:40+00:00
p382
F0.0082
tp383
a(V2015-04-16 15:45:27+00:00
p384
F0.0081
tp385
a(V2015-04-17 15:47:32+00:00
p386
F0.0081
tp387
a(V2015-04-17 16:05:58+00:00
p388
F0.0082
tp389
a(V2015-04-17 16:48:23+00:00
p390
F0.0081
tp391
a(V2015-04-18 16:52:03+00:00
p392
F0.0081
tp393
a(V2015-04-19 16:52:27+00:00
p394
F0.0081
tp395
a(V2015-04-20 16:53:00+00:00
p396
F0.0081
tp397
a(V2015-04-21 16:58:29+00:00
p398
F0.0081
tp399
a(V2015-04-22 17:03:16+00:00
p400
F0.0081
tp401
a(V2015-04-23 17:06:26+00:00
p402
F0.0081
tp403
a(V2015-04-24 17:11:43+00:00
p404
F0.0081
tp405
a(V2015-04-25 17:17:19+00:00
p406
F0.0081
tp407
a(V2015-04-26 17:23:10+00:00
p408
F0.0081
tp409
a(V2015-04-27 17:29:15+00:00
p410
F0.0081
tp411
a(V2015-04-28 17:35:12+00:00
p412
F0.0081
tp413
a(V2015-04-29 17:36:43+00:00
p414
F0.0081
tp415
a(V2015-04-30 17:37:57+00:00
p416
F0.0081
tp417
a(V2015-05-01 17:42:49+00:00
p418
F0.0081
tp419
a(V2015-05-02 17:48:40+00:00
p420
F0.0081
tp421
a(V2015-05-03 17:54:19+00:00
p422
F0.0081
tp423
a(V2015-05-04 18:01:56+00:00
p424
F0.0081
tp425
a(V2015-05-05 18:09:06+00:00
p426
F0.0081
tp427
a(V2015-05-06 18:14:16+00:00
p428
F0.0081
tp429
a(V2015-05-07 18:15:14+00:00
p430
F0.0081
tp431
a(V2015-05-08 18:19:19+00:00
p432
F0.0081
tp433
a(V2015-05-09 18:21:58+00:00
p434
F0.0081
tp435
a(V2015-05-10 18:25:43+00:00
p436
F0.0081
tp437
a(V2015-05-11 18:29:45+00:00
p438
F0.0081
tp439
a(V2015-05-12 18:30:38+00:00
p440
F0.0081
tp441
a(V2015-05-13 18:35:13+00:00
p442
F0.0081
tp443
a(V2015-05-14 18:36:03+00:00
p444
F0.0081
tp445
a(V2015-05-15 18:40:32+00:00
p446
F0.0081
tp447
a(V2015-05-15 18:56:27+00:00
p448
F0.0082
tp449
a(V2015-05-15 19:04:18+00:00
p450
F0.0084
tp451
a(V2015-05-15 19:12:49+00:00
p452
F0.0083
tp453
a(V2015-05-15 19:21:03+00:00
p454
F0.0081
tp455
a(V2015-05-16 19:27:37+00:00
p456
F0.0081
tp457
a(V2015-05-17 19:31:29+00:00
p458
F0.0081
tp459
a(V2015-05-18 19:34:26+00:00
p460
F0.0081
tp461
a(V2015-05-19 19:40:07+00:00
p462
F0.0081
tp463
a(V2015-05-20 19:42:16+00:00
p464
F0.0081
tp465
a(V2015-05-21 19:43:47+00:00
p466
F0.0081
tp467
a(V2015-05-22 19:45:01+00:00
p468
F0.0081
tp469
a(V2015-05-23 19:45:07+00:00
p470
F0.0081
tp471
a(V2015-05-24 19:51:09+00:00
p472
F0.0081
tp473
a(V2015-05-25 19:52:14+00:00
p474
F0.0081
tp475
a(V2015-05-26 19:57:25+00:00
p476
F0.0081
tp477
a(V2015-05-27 20:01:13+00:00
p478
F0.0081
tp479
a(V2015-05-28 20:01:32+00:00
p480
F0.0081
tp481
a(V2015-05-28 20:10:09+00:00
p482
F0.01
tp483
a(V2015-05-29 20:11:17+00:00
p484
F0.01
tp485
a(V2015-05-30 20:17:12+00:00
p486
F0.01
tp487
a(V2015-05-31 20:24:03+00:00
p488
F0.01
tp489
a(V2015-06-01 20:24:18+00:00
p490
F0.01
tp491
a(V2015-06-02 20:31:23+00:00
p492
F0.01
tp493
a(V2015-06-03 20:38:33+00:00
p494
F0.01
tp495
a(V2015-06-04 20:41:38+00:00
p496
F0.01
tp497
a(V2015-06-05 20:42:01+00:00
p498
F0.01
tp499
a(V2015-06-06 20:45:53+00:00
p500
F0.01
tp501
a(V2015-06-07 20:47:39+00:00
p502
F0.01
tp503
a(V2015-06-08 20:53:14+00:00
p504
F0.01
tp505
a(V2015-06-12 21:12:41+00:00
p506
F0.01
tp507
a(V2015-06-13 21:18:19+00:00
p508
F0.01
tp509
a(V2015-06-14 21:18:33+00:00
p510
F0.01
tp511
a(V2015-06-15 21:23:09+00:00
p512
F0.01
tp513
a(V2015-06-16 21:27:57+00:00
p514
F0.01
tp515
a(V2015-06-17 21:29:42+00:00
p516
F0.01
tp517
a(V2015-06-18 21:34:09+00:00
p518
F0.01
tp519
a(V2015-06-19 21:34:23+00:00
p520
F0.01
tp521
a(V2015-06-20 21:40:39+00:00
p522
F0.01
tp523
a(V2015-06-21 21:45:36+00:00
p524
F0.01
tp525
a(V2015-06-22 21:48:40+00:00
p526
F0.01
tp527
a(V2015-06-23 21:49:41+00:00
p528
F0.01
tp529
a(V2015-06-24 21:53:47+00:00
p530
F0.01
tp531
a(V2015-06-25 22:01:15+00:00
p532
F0.01
tp533
a(V2015-06-26 22:07:04+00:00
p534
F0.01
tp535
a(V2015-06-27 22:11:23+00:00
p536
F0.01
tp537
a(V2015-06-28 22:15:39+00:00
p538
F0.01
tp539
a(V2015-06-29 22:17:54+00:00
p540
F0.01
tp541
a(V2015-06-30 22:23:20+00:00
p542
F0.01
tp543
a(V2015-07-01 22:29:18+00:00
p544
F0.01
tp545
a(V2015-07-02 22:32:00+00:00
p546
F0.01
tp547
a(V2015-07-03 22:32:25+00:00
p548
F0.01
tp549
a(V2015-07-04 22:38:26+00:00
p550
F0.01
tp551
a(V2015-07-05 22:42:24+00:00
p552
F0.01
tp553
a(V2015-07-06 22:48:26+00:00
p554
F0.01
tp555
a(V2015-07-07 22:52:22+00:00
p556
F0.01
tp557
a(V2015-07-08 22:53:16+00:00
p558
F0.01
tp559
a(V2015-07-09 22:56:33+00:00
p560
F0.01
tp561
a(V2015-07-10 23:01:01+00:00
p562
F0.01
tp563
a(V2015-07-11 23:08:13+00:00
p564
F0.01
tp565
a(V2015-07-12 23:10:20+00:00
p566
F0.01
tp567
a(V2015-07-13 09:55:17+00:00
p568
F0.0081
tp569
a(V2015-07-13 09:57:45+00:00
p570
F0.01
tp571
a(V2015-07-13 10:03:00+00:00
p572
F0.0081
tp573
a(V2015-07-13 10:05:36+00:00
p574
F0.01
tp575
a(V2015-07-13 10:10:57+00:00
p576
F0.0081
tp577
a(V2015-07-13 10:13:31+00:00
p578
F0.01
tp579
a(V2015-07-13 10:18:58+00:00
p580
F0.0081
tp581
a(V2015-07-13 10:21:25+00:00
p582
F0.01
tp583
a(V2015-07-13 10:26:52+00:00
p584
F0.0081
tp585
a(V2015-07-13 10:29:28+00:00
p586
F0.01
tp587
a(V2015-07-13 10:34:45+00:00
p588
F0.0081
tp589
a(V2015-07-13 10:37:33+00:00
p590
F0.01
tp591
a(V2015-07-13 10:42:51+00:00
p592
F0.0081
tp593
a(V2015-07-13 10:45:27+00:00
p594
F0.01
tp595
a(V2015-07-13 10:50:47+00:00
p596
F0.0081
tp597
a(V2015-07-13 10:53:22+00:00
p598
F0.01
tp599
a(V2015-07-13 10:58:38+00:00
p600
F0.0081
tp601
a(V2015-07-13 11:01:08+00:00
p602
F0.01
tp603
a(V2015-07-13 11:06:51+00:00
p604
F0.0081
tp605
a(V2015-07-13 11:09:35+00:00
p606
F0.01
tp607
a(V2015-07-13 11:15:06+00:00
p608
F0.0081
tp609
a(V2015-07-13 11:17:48+00:00
p610
F0.01
tp611
a(V2015-07-13 11:23:27+00:00
p612
F0.0081
tp613
a(V2015-07-13 11:26:18+00:00
p614
F0.01
tp615
a(V2015-07-13 11:31:54+00:00
p616
F0.0081
tp617
a(V2015-07-13 11:34:33+00:00
p618
F0.01
tp619
a(V2015-07-13 11:40:08+00:00
p620
F0.0081
tp621
a(V2015-07-13 11:42:40+00:00
p622
F0.01
tp623
a(V2015-07-13 11:48:18+00:00
p624
F0.0081
tp625
a(V2015-07-13 11:50:53+00:00
p626
F0.01
tp627
a(V2015-07-14 11:58:20+00:00
p628
F0.01
tp629
a(V2015-07-15 12:05:58+00:00
p630
F0.01
tp631
a(V2015-07-16 12:06:43+00:00
p632
F0.01
tp633
a(V2015-07-17 12:14:08+00:00
p634
F0.01
tp635
a(V2015-07-18 12:18:55+00:00
p636
F0.01
tp637
a(V2015-07-19 12:23:22+00:00
p638
F0.01
tp639
a(V2015-07-20 12:24:15+00:00
p640
F0.01
tp641
a(V2015-07-21 01:24:00+00:00
p642
F0.0099
tp643
a(V2015-07-21 01:33:35+00:00
p644
F0.01
tp645
a(V2015-07-21 01:51:54+00:00
p646
F0.0099
tp647
a(V2015-07-21 02:38:37+00:00
p648
F0.01
tp649
a(V2015-07-21 07:59:42+00:00
p650
F0.0101
tp651
a(V2015-07-21 08:16:06+00:00
p652
F0.01
tp653
a(V2015-07-21 08:23:55+00:00
p654
F0.0099
tp655
a(V2015-07-21 08:31:57+00:00
p656
F0.0098
tp657
a(V2015-07-21 08:47:24+00:00
p658
F0.0096
tp659
a(V2015-07-21 08:55:16+00:00
p660
F0.0097
tp661
a(V2015-07-21 09:11:46+00:00
p662
F0.0098
tp663
a(V2015-07-21 09:20:06+00:00
p664
F0.0101
tp665
a(V2015-07-21 09:28:01+00:00
p666
F0.0102
tp667
a(V2015-07-21 09:45:04+00:00
p668
F0.0103
tp669
a(V2015-07-21 09:53:09+00:00
p670
F0.0104
tp671
a(V2015-07-21 10:09:22+00:00
p672
F0.0105
tp673
a(V2015-07-21 10:25:36+00:00
p674
F0.0107
tp675
a(V2015-07-21 10:41:17+00:00
p676
F0.0108
tp677
a(V2015-07-21 10:46:37+00:00
p678
F0.0081
tp679
a(V2015-07-21 10:49:07+00:00
p680
F0.0108
tp681
a(V2015-07-21 10:54:21+00:00
p682
F0.0081
tp683
a(V2015-07-21 10:56:47+00:00
p684
F0.0108
tp685
a(V2015-07-21 11:02:02+00:00
p686
F0.0081
tp687
a(V2015-07-21 11:04:33+00:00
p688
F0.0109
tp689
a(V2015-07-21 11:10:10+00:00
p690
F0.0081
tp691
a(V2015-07-21 11:12:50+00:00
p692
F0.0109
tp693
a(V2015-07-21 11:18:16+00:00
p694
F0.0081
tp695
a(V2015-07-21 11:21:02+00:00
p696
F0.0106
tp697
a(V2015-07-21 12:16:41+00:00
p698
F0.011
tp699
a(V2015-07-21 12:32:50+00:00
p700
F0.0109
tp701
a(V2015-07-21 13:05:40+00:00
p702
F0.011
tp703
a(V2015-07-21 13:55:15+00:00
p704
F0.0111
tp705
a(V2015-07-21 14:12:10+00:00
p706
F0.0112
tp707
a(V2015-07-21 14:28:50+00:00
p708
F0.0114
tp709
a(V2015-07-21 14:46:22+00:00
p710
F0.0113
tp711
a(V2015-07-21 14:55:45+00:00
p712
F0.0106
tp713
a(V2015-07-21 15:04:23+00:00
p714
F0.0108
tp715
a(V2015-07-21 15:13:01+00:00
p716
F0.0107
tp717
a(V2015-07-21 15:30:35+00:00
p718
F0.0108
tp719
a(V2015-07-21 15:36:26+00:00
p720
F0.0081
tp721
a(V2015-07-21 15:39:10+00:00
p722
F0.0107
tp723
a(V2015-07-21 15:45:01+00:00
p724
F0.0081
tp725
a(V2015-07-21 15:47:40+00:00
p726
F0.0105
tp727
a(V2015-07-21 16:03:07+00:00
p728
F0.0081
tp729
a(V2015-07-21 16:06:11+00:00
p730
F0.0105
tp731
a(V2015-07-21 16:12:13+00:00
p732
F0.0081
tp733
a(V2015-07-21 16:14:38+00:00
p734
F0.0106
tp735
a(V2015-07-21 16:31:42+00:00
p736
F0.0105
tp737
a(V2015-07-21 16:40:14+00:00
p738
F0.0104
tp739
a(V2015-07-21 17:14:36+00:00
p740
F0.0105
tp741
a(V2015-07-21 17:23:55+00:00
p742
F0.0106
tp743
a(V2015-07-21 17:33:03+00:00
p744
F0.0107
tp745
a(V2015-07-21 17:50:31+00:00
p746
F0.0108
tp747
a(V2015-07-21 17:59:18+00:00
p748
F0.0109
tp749
a(V2015-07-21 18:08:08+00:00
p750
F0.0108
tp751
a(V2015-07-21 18:16:59+00:00
p752
F0.0109
tp753
a(V2015-07-21 18:25:54+00:00
p754
F0.011
tp755
a(V2015-07-21 18:34:52+00:00
p756
F0.0115
tp757
a(V2015-07-21 18:43:37+00:00
p758
F0.0117
tp759
a(V2015-07-21 21:12:25+00:00
p760
F0.0116
tp761
a(V2015-07-21 21:47:20+00:00
p762
F0.012
tp763
a(V2015-07-22 03:41:01+00:00
p764
F0.011
tp765
a(V2015-07-22 04:33:34+00:00
p766
F0.0111
tp767
a(V2015-07-22 04:38:57+00:00
p768
F0.011
tp769
a(V2015-07-22 05:20:30+00:00
p770
F0.0111
tp771
a(V2015-07-22 06:02:45+00:00
p772
F0.0081
tp773
a(V2015-07-22 06:05:31+00:00
p774
F0.011
tp775
a(V2015-07-22 06:11:16+00:00
p776
F0.0081
tp777
a(V2015-07-22 06:13:48+00:00
p778
F0.011
tp779
a(V2015-07-22 06:19:20+00:00
p780
F0.0081
tp781
a(V2015-07-22 06:21:59+00:00
p782
F0.011
tp783
a(V2015-07-22 06:27:42+00:00
p784
F0.0081
tp785
a(V2015-07-22 06:30:12+00:00
p786
F0.011
tp787
a(V2015-07-22 06:35:54+00:00
p788
F0.0081
tp789
a(V2015-07-22 06:38:23+00:00
p790
F0.011
tp791
a(V2015-07-22 06:44:06+00:00
p792
F0.0081
tp793
a(V2015-07-22 06:46:50+00:00
p794
F0.011
tp795
a(V2015-07-22 08:03:40+00:00
p796
F0.0111
tp797
a(V2015-07-22 08:46:20+00:00
p798
F0.0112
tp799
a(V2015-07-22 09:28:30+00:00
p800
F0.0111
tp801
a(V2015-07-22 09:44:59+00:00
p802
F0.0116
tp803
a(V2015-07-22 09:53:36+00:00
p804
F0.0118
tp805
a(V2015-07-22 10:43:58+00:00
p806
F0.0119
tp807
a(V2015-07-22 11:08:43+00:00
p808
F0.012
tp809
a(V2015-07-22 12:48:09+00:00
p810
F0.0116
tp811
a(V2015-07-22 14:04:58+00:00
p812
F0.0117
tp813
a(V2015-07-22 14:40:36+00:00
p814
F0.0116
tp815
a(V2015-07-22 14:58:40+00:00
p816
F0.0117
tp817
a(V2015-07-22 15:16:15+00:00
p818
F0.0116
tp819
a(V2015-07-22 15:25:28+00:00
p820
F0.0117
tp821
a(V2015-07-22 16:38:38+00:00
p822
F0.0118
tp823
a(V2015-07-22 16:47:14+00:00
p824
F0.0117
tp825
a(V2015-07-22 17:04:48+00:00
p826
F0.0116
tp827
a(V2015-07-22 17:13:35+00:00
p828
F0.0117
tp829
a(V2015-07-22 19:31:55+00:00
p830
F0.0118
tp831
a(V2015-07-22 20:00:10+00:00
p832
F0.0116
tp833
a(V2015-07-22 20:27:16+00:00
p834
F0.0117
tp835
a(V2015-07-22 20:35:47+00:00
p836
F0.0116
tp837
a(V2015-07-22 20:45:08+00:00
p838
F0.0115
tp839
a(V2015-07-22 20:54:09+00:00
p840
F0.0116
tp841
a(V2015-07-22 21:39:01+00:00
p842
F0.0115
tp843
a(V2015-07-22 22:28:04+00:00
p844
F0.0114
tp845
a(V2015-07-22 23:11:57+00:00
p846
F0.0113
tp847
a(V2015-07-22 23:37:36+00:00
p848
F0.0112
tp849
a(V2015-07-22 23:45:57+00:00
p850
F0.0113
tp851
a(V2015-07-23 00:12:19+00:00
p852
F0.0112
tp853
a(V2015-07-23 01:06:14+00:00
p854
F0.0111
tp855
a(V2015-07-23 01:57:38+00:00
p856
F0.011
tp857
a(V2015-07-23 07:12:40+00:00
p858
F0.0111
tp859
a(V2015-07-23 08:18:49+00:00
p860
F0.0112
tp861
a(V2015-07-23 09:07:56+00:00
p862
F0.0111
tp863
a(V2015-07-23 09:25:23+00:00
p864
F0.0112
tp865
a(V2015-07-23 09:58:15+00:00
p866
F0.0113
tp867
a(V2015-07-23 10:07:02+00:00
p868
F0.0114
tp869
a(V2015-07-23 10:15:38+00:00
p870
F0.0113
tp871
a(V2015-07-23 11:15:57+00:00
p872
F0.0114
tp873
a(V2015-07-23 12:34:51+00:00
p874
F0.0115
tp875
a(V2015-07-23 13:19:21+00:00
p876
F0.0116
tp877
a(V2015-07-23 15:06:09+00:00
p878
F0.0117
tp879
a(V2015-07-23 15:15:28+00:00
p880
F0.0116
tp881
a(V2015-07-23 15:24:50+00:00
p882
F0.0117
tp883
a(V2015-07-23 15:43:50+00:00
p884
F0.0116
tp885
a(V2015-07-23 16:56:24+00:00
p886
F0.0117
tp887
a(V2015-07-23 17:15:03+00:00
p888
F0.0116
tp889
a(V2015-07-23 17:41:08+00:00
p890
F0.0115
tp891
a(V2015-07-23 17:58:59+00:00
p892
F0.0116
tp893
a(V2015-07-23 19:01:21+00:00
p894
F0.0117
tp895
a(V2015-07-23 19:10:08+00:00
p896
F0.0116
tp897
a(V2015-07-23 19:28:02+00:00
p898
F0.0117
tp899
a(V2015-07-23 20:30:14+00:00
p900
F0.0118
tp901
a(V2015-07-23 21:25:24+00:00
p902
F0.0119
tp903
a(V2015-07-23 22:00:13+00:00
p904
F0.0118
tp905
a(V2015-07-23 22:27:12+00:00
p906
F0.0117
tp907
a(V2015-07-23 22:44:37+00:00
p908
F0.0115
tp909
a(V2015-07-23 23:09:46+00:00
p910
F0.0114
tp911
a(V2015-07-23 23:26:51+00:00
p912
F0.0113
tp913
a(V2015-07-24 00:00:09+00:00
p914
F0.0112
tp915
a(V2015-07-24 00:09:12+00:00
p916
F0.0111
tp917
a(V2015-07-24 00:27:47+00:00
p918
F0.0112
tp919
a(V2015-07-24 01:02:47+00:00
p920
F0.0111
tp921
a(V2015-07-24 01:19:45+00:00
p922
F0.011
tp923
a(V2015-07-24 01:28:08+00:00
p924
F0.0111
tp925
a(V2015-07-24 01:36:35+00:00
p926
F0.011
tp927
a(V2015-07-24 03:01:46+00:00
p928
F0.0109
tp929
a(V2015-07-24 04:21:19+00:00
p930
F0.011
tp931
a(V2015-07-24 07:11:23+00:00
p932
F0.0111
tp933
a(V2015-07-24 09:11:55+00:00
p934
F0.011
tp935
a(V2015-07-24 09:28:51+00:00
p936
F0.0112
tp937
a(V2015-07-24 10:42:45+00:00
p938
F0.011
tp939
a(V2015-07-24 10:51:05+00:00
p940
F0.0107
tp941
a(V2015-07-24 10:59:01+00:00
p942
F0.0106
tp943
a(V2015-07-24 11:07:54+00:00
p944
F0.0103
tp945
a(V2015-07-24 11:16:45+00:00
p946
F0.0102
tp947
a(V2015-07-24 11:25:10+00:00
p948
F0.01
tp949
a(V2015-07-24 11:33:11+00:00
p950
F0.0099
tp951
a(V2015-07-24 11:57:17+00:00
p952
F0.01
tp953
a(V2015-07-24 12:13:56+00:00
p954
F0.0101
tp955
a(V2015-07-24 12:38:36+00:00
p956
F0.01
tp957
a(V2015-07-24 12:46:41+00:00
p958
F0.0101
tp959
a(V2015-07-24 13:03:04+00:00
p960
F0.0106
tp961
a(V2015-07-24 13:11:35+00:00
p962
F0.0107
tp963
a(V2015-07-24 13:20:19+00:00
p964
F0.0106
tp965
a(V2015-07-24 13:28:41+00:00
p966
F0.0104
tp967
a(V2015-07-24 13:45:38+00:00
p968
F0.0105
tp969
a(V2015-07-24 13:54:04+00:00
p970
F0.0107
tp971
a(V2015-07-24 14:29:25+00:00
p972
F0.0108
tp973
a(V2015-07-24 14:38:43+00:00
p974
F0.0109
tp975
a(V2015-07-24 14:47:41+00:00
p976
F0.011
tp977
a(V2015-07-24 15:04:16+00:00
p978
F0.0112
tp979
a(V2015-07-24 15:21:14+00:00
p980
F0.0113
tp981
a(V2015-07-24 15:30:07+00:00
p982
F0.0114
tp983
a(V2015-07-24 15:38:35+00:00
p984
F0.0116
tp985
a(V2015-07-24 15:47:27+00:00
p986
F0.0117
tp987
a(V2015-07-24 15:56:17+00:00
p988
F0.0116
tp989
a(V2015-07-24 16:05:17+00:00
p990
F0.0118
tp991
a(V2015-07-24 16:22:22+00:00
p992
F0.0119
tp993
a(V2015-07-24 16:40:35+00:00
p994
F0.012
tp995
a(V2015-07-24 19:19:41+00:00
p996
F0.0119
tp997
a(V2015-07-24 19:28:15+00:00
p998
F0.0117
tp999
a(V2015-07-24 19:37:02+00:00
p1000
F0.0113
tp1001
a(V2015-07-24 19:42:52+00:00
p1002
F0.0111
tp1003
a(V2015-07-24 19:48:36+00:00
p1004
F0.0109
tp1005
a(V2015-07-24 19:57:04+00:00
p1006
F0.0107
tp1007
a(V2015-07-24 20:05:47+00:00
p1008
F0.0099
tp1009
a(V2015-07-24 20:17:59+00:00
p1010
F0.0098
tp1011
a(V2015-07-24 20:32:33+00:00
p1012
F0.0099
tp1013
a(V2015-07-24 20:41:12+00:00
p1014
F0.0098
tp1015
a(V2015-07-24 20:46:54+00:00
p1016
F0.01
tp1017
a(V2015-07-24 21:10:06+00:00
p1018
F0.0101
tp1019
a(V2015-07-24 21:16:09+00:00
p1020
F0.0102
tp1021
a(V2015-07-24 21:25:10+00:00
p1022
F0.0104
tp1023
a(V2015-07-24 21:34:03+00:00
p1024
F0.0105
tp1025
a(V2015-07-24 21:48:36+00:00
p1026
F0.0106
tp1027
a(V2015-07-24 22:03:30+00:00
p1028
F0.0108
tp1029
a(V2015-07-24 22:09:33+00:00
p1030
F0.0107
tp1031
a(V2015-07-24 23:05:47+00:00
p1032
F0.0106
tp1033
a(V2015-07-24 23:28:21+00:00
p1034
F0.0104
tp1035
a(V2015-07-25 00:09:18+00:00
p1036
F0.0103
tp1037
a(V2015-07-25 00:15:33+00:00
p1038
F0.0101
tp1039
a(V2015-07-25 00:24:11+00:00
p1040
F0.0098
tp1041
a(V2015-07-25 00:53:14+00:00
p1042
F0.0097
tp1043
a(V2015-07-25 00:59:10+00:00
p1044
F0.0098
tp1045
a(V2015-07-25 01:07:45+00:00
p1046
F0.0097
tp1047
a(V2015-07-25 04:43:00+00:00
p1048
F0.0096
tp1049
a(V2015-07-25 10:48:03+00:00
p1050
F0.0097
tp1051
a(V2015-07-25 11:03:58+00:00
p1052
F0.0099
tp1053
a(V2015-07-25 11:12:05+00:00
p1054
F0.0098
tp1055
a(V2015-07-25 11:20:14+00:00
p1056
F0.0099
tp1057
a(V2015-07-25 11:28:14+00:00
p1058
F0.01
tp1059
a(V2015-07-25 11:53:10+00:00
p1060
F0.0101
tp1061
a(V2015-07-25 12:01:23+00:00
p1062
F0.0102
tp1063
a(V2015-07-25 12:09:56+00:00
p1064
F0.0103
tp1065
a(V2015-07-25 12:26:37+00:00
p1066
F0.0102
tp1067
a(V2015-07-25 12:34:54+00:00
p1068
F0.0103
tp1069
a(V2015-07-25 12:43:03+00:00
p1070
F0.0102
tp1071
a(V2015-07-25 12:59:07+00:00
p1072
F0.0103
tp1073
a(V2015-07-25 13:47:07+00:00
p1074
F0.0102
tp1075
a(V2015-07-25 13:54:57+00:00
p1076
F0.0103
tp1077
a(V2015-07-25 15:06:16+00:00
p1078
F0.0104
tp1079
a(V2015-07-25 15:22:26+00:00
p1080
F0.0105
tp1081
a(V2015-07-25 18:38:48+00:00
p1082
F0.0104
tp1083
a(V2015-07-25 21:43:33+00:00
p1084
F0.0103
tp1085
a(V2015-07-25 22:25:26+00:00
p1086
F0.0102
tp1087
a(V2015-07-25 22:42:11+00:00
p1088
F0.0101
tp1089
a(V2015-07-25 23:50:44+00:00
p1090
F0.01
tp1091
a(V2015-07-26 00:17:58+00:00
p1092
F0.0099
tp1093
a(V2015-07-26 00:27:08+00:00
p1094
F0.0096
tp1095
a(V2015-07-26 02:10:13+00:00
p1096
F0.0097
tp1097
a(V2015-07-26 03:07:47+00:00
p1098
F0.0096
tp1099
a(V2015-07-26 08:59:59+00:00
p1100
F0.0097
tp1101
a(V2015-07-26 09:16:39+00:00
p1102
F0.0098
tp1103
a(V2015-07-26 09:32:53+00:00
p1104
F0.0099
tp1105
a(V2015-07-26 09:48:57+00:00
p1106
F0.01
tp1107
a(V2015-07-26 11:10:32+00:00
p1108
F0.0099
tp1109
a(V2015-07-26 11:19:29+00:00
p1110
F0.01
tp1111
a(V2015-07-26 11:36:38+00:00
p1112
F0.0101
tp1113
a(V2015-07-26 11:53:25+00:00
p1114
F0.0102
tp1115
a(V2015-07-26 12:10:11+00:00
p1116
F0.0103
tp1117
a(V2015-07-26 13:51:57+00:00
p1118
F0.0104
tp1119
a(V2015-07-26 14:08:43+00:00
p1120
F0.0105
tp1121
a(V2015-07-26 14:25:45+00:00
p1122
F0.0106
tp1123
a(V2015-07-26 14:34:16+00:00
p1124
F0.0107
tp1125
a(V2015-07-26 14:42:31+00:00
p1126
F0.0108
tp1127
a(V2015-07-26 15:42:59+00:00
p1128
F0.0107
tp1129
a(V2015-07-26 15:51:35+00:00
p1130
F0.0108
tp1131
a(V2015-07-26 16:09:04+00:00
p1132
F0.0107
tp1133
a(V2015-07-26 21:15:47+00:00
p1134
F0.0106
tp1135
a(V2015-07-26 21:41:20+00:00
p1136
F0.0105
tp1137
a(V2015-07-26 22:31:45+00:00
p1138
F0.0104
tp1139
a(V2015-07-26 22:39:38+00:00
p1140
F0.0103
tp1141
a(V2015-07-26 22:47:37+00:00
p1142
F0.0102
tp1143
a(V2015-07-26 23:44:07+00:00
p1144
F0.0101
tp1145
a(V2015-07-27 00:18:30+00:00
p1146
F0.0099
tp1147
a(V2015-07-27 00:27:40+00:00
p1148
F0.0097
tp1149
a(V2015-07-27 00:36:46+00:00
p1150
F0.0096
tp1151
a(V2015-07-27 00:54:28+00:00
p1152
F0.0095
tp1153
a(V2015-07-27 01:03:19+00:00
p1154
F0.0096
tp1155
a(V2015-07-27 01:20:39+00:00
p1156
F0.0095
tp1157
a(V2015-07-27 02:02:00+00:00
p1158
F0.0096
tp1159
a(V2015-07-27 02:18:49+00:00
p1160
F0.0097
tp1161
a(V2015-07-27 02:36:58+00:00
p1162
F0.0098
tp1163
a(V2015-07-27 04:27:03+00:00
p1164
F0.0096
tp1165
a(V2015-07-27 04:35:16+00:00
p1166
F0.0095
tp1167
a(V2015-07-27 04:43:53+00:00
p1168
F0.0094
tp1169
a(V2015-07-27 05:00:17+00:00
p1170
F0.0095
tp1171
a(V2015-07-27 05:08:44+00:00
p1172
F0.0094
tp1173
a(V2015-07-27 05:25:30+00:00
p1174
F0.0093
tp1175
a(V2015-07-27 05:42:17+00:00
p1176
F0.0094
tp1177
a(V2015-07-27 06:07:14+00:00
p1178
F0.0095
tp1179
a(V2015-07-27 06:23:42+00:00
p1180
F0.0096
tp1181
a(V2015-07-27 06:47:58+00:00
p1182
F0.0097
tp1183
a(V2015-07-27 07:12:45+00:00
p1184
F0.0096
tp1185
a(V2015-07-27 09:05:03+00:00
p1186
F0.0097
tp1187
a(V2015-07-27 10:50:55+00:00
p1188
F0.0098
tp1189
a(V2015-07-27 11:06:50+00:00
p1190
F0.01
tp1191
a(V2015-07-27 11:23:25+00:00
p1192
F0.0101
tp1193
a(V2015-07-27 11:56:32+00:00
p1194
F0.0103
tp1195
a(V2015-07-27 12:05:00+00:00
p1196
F0.0104
tp1197
a(V2015-07-27 12:39:51+00:00
p1198
F0.0106
tp1199
a(V2015-07-27 12:48:58+00:00
p1200
F0.0105
tp1201
a(V2015-07-27 12:57:25+00:00
p1202
F0.0107
tp1203
a(V2015-07-27 13:15:09+00:00
p1204
F0.0108
tp1205
a(V2015-07-27 13:40:33+00:00
p1206
F0.0109
tp1207
a(V2015-07-27 13:48:52+00:00
p1208
F0.0108
tp1209
a(V2015-07-27 14:14:51+00:00
p1210
F0.0109
tp1211
a(V2015-07-27 16:37:44+00:00
p1212
F0.011
tp1213
a(V2015-07-27 17:13:43+00:00
p1214
F0.0109
tp1215
a(V2015-07-27 18:07:24+00:00
p1216
F0.0108
tp1217
a(V2015-07-27 18:24:55+00:00
p1218
F0.0109
tp1219
a(V2015-07-27 18:51:57+00:00
p1220
F0.0108
tp1221
a(V2015-07-27 19:09:28+00:00
p1222
F0.0109
tp1223
a(V2015-07-27 20:01:58+00:00
p1224
F0.011
tp1225
a(V2015-07-27 20:45:16+00:00
p1226
F0.0109
tp1227
a(V2015-07-27 20:53:40+00:00
p1228
F0.011
tp1229
a(V2015-07-27 21:02:12+00:00
p1230
F0.0109
tp1231
a(V2015-07-27 21:29:17+00:00
p1232
F0.011
tp1233
a(V2015-07-27 21:37:53+00:00
p1234
F0.0109
tp1235
a(V2015-07-27 23:03:58+00:00
p1236
F0.0108
tp1237
a(V2015-07-27 23:37:12+00:00
p1238
F0.0113
tp1239
a(V2015-07-27 23:45:34+00:00
p1240
F0.0107
tp1241
a(V2015-07-27 23:53:39+00:00
p1242
F0.0106
tp1243
a(V2015-07-28 00:28:07+00:00
p1244
F0.0105
tp1245
a(V2015-07-28 00:37:08+00:00
p1246
F0.0103
tp1247
a(V2015-07-28 04:15:00+00:00
p1248
F0.0101
tp1249
a(V2015-07-28 04:23:23+00:00
p1250
F0.01
tp1251
a(V2015-07-28 04:31:53+00:00
p1252
F0.0099
tp1253
a(V2015-07-28 04:48:46+00:00
p1254
F0.0098
tp1255
a(V2015-07-28 05:23:11+00:00
p1256
F0.0099
tp1257
a(V2015-07-28 05:31:49+00:00
p1258
F0.01
tp1259
a(V2015-07-28 05:40:23+00:00
p1260
F0.0099
tp1261
a(V2015-07-28 06:38:55+00:00
p1262
F0.0098
tp1263
a(V2015-07-28 06:47:09+00:00
p1264
F0.0097
tp1265
a(V2015-07-28 06:55:25+00:00
p1266
F0.0096
tp1267
a(V2015-07-28 07:20:47+00:00
p1268
F0.0095
tp1269
a(V2015-07-28 07:53:56+00:00
p1270
F0.0096
tp1271
a(V2015-07-28 08:02:05+00:00
p1272
F0.0097
tp1273
a(V2015-07-28 09:00:38+00:00
p1274
F0.0096
tp1275
a(V2015-07-28 09:43:01+00:00
p1276
F0.0098
tp1277
a(V2015-07-28 09:51:18+00:00
p1278
F0.01
tp1279
a(V2015-07-28 09:59:43+00:00
p1280
F0.0101
tp1281
a(V2015-07-28 10:33:39+00:00
p1282
F0.0102
tp1283
a(V2015-07-28 10:42:02+00:00
p1284
F0.0103
tp1285
a(V2015-07-28 10:50:27+00:00
p1286
F0.0104
tp1287
a(V2015-07-28 10:58:48+00:00
p1288
F0.0105
tp1289
a(V2015-07-28 11:07:09+00:00
p1290
F0.0107
tp1291
a(V2015-07-28 11:24:05+00:00
p1292
F0.0108
tp1293
a(V2015-07-28 11:41:03+00:00
p1294
F0.011
tp1295
a(V2015-07-28 11:58:16+00:00
p1296
F0.0111
tp1297
a(V2015-07-28 12:34:15+00:00
p1298
F0.0112
tp1299
a(V2015-07-28 13:26:00+00:00
p1300
F0.0113
tp1301
a(V2015-07-28 13:34:34+00:00
p1302
F0.0114
tp1303
a(V2015-07-28 13:51:32+00:00
p1304
F0.0115
tp1305
a(V2015-07-28 14:00:08+00:00
p1306
F0.0117
tp1307
a(V2015-07-28 14:09:12+00:00
p1308
F0.0118
tp1309
a(V2015-07-28 14:17:54+00:00
p1310
F0.0117
tp1311
a(V2015-07-28 14:35:17+00:00
p1312
F0.012
tp1313
a(V2015-07-28 15:46:05+00:00
p1314
F0.0119
tp1315
a(V2015-07-28 16:03:54+00:00
p1316
F0.012
tp1317
a(V2015-07-28 19:59:07+00:00
p1318
F0.0119
tp1319
a(V2015-07-28 20:18:22+00:00
p1320
F0.0118
tp1321
a(V2015-07-28 21:14:42+00:00
p1322
F0.0119
tp1323
a(V2015-07-28 21:42:42+00:00
p1324
F0.0118
tp1325
a(V2015-07-28 21:51:37+00:00
p1326
F0.0119
tp1327
a(V2015-07-28 22:00:21+00:00
p1328
F0.0118
tp1329
a(V2015-07-28 22:26:54+00:00
p1330
F0.0117
tp1331
a(V2015-07-28 22:35:50+00:00
p1332
F0.0114
tp1333
a(V2015-07-28 22:45:11+00:00
p1334
F0.0113
tp1335
a(V2015-07-28 22:54:25+00:00
p1336
F0.0112
tp1337
a(V2015-07-28 23:03:22+00:00
p1338
F0.0111
tp1339
a(V2015-07-28 23:20:49+00:00
p1340
F0.011
tp1341
a(V2015-07-28 23:55:55+00:00
p1342
F0.0111
tp1343
a(V2015-07-29 00:42:18+00:00
p1344
F0.0109
tp1345
a(V2015-07-29 00:51:15+00:00
p1346
F0.011
tp1347
a(V2015-07-29 01:00:05+00:00
p1348
F0.0109
tp1349
a(V2015-07-29 01:45:11+00:00
p1350
F0.012
tp1351
a(V2015-07-29 01:53:51+00:00
p1352
F0.011
tp1353
a(V2015-07-29 02:02:20+00:00
p1354
F0.012
tp1355
a(V2015-07-30 02:09:21+00:00
p1356
F0.012
tp1357
a(V2015-07-31 02:15:20+00:00
p1358
F0.012
tp1359
a(V2015-08-01 02:21:52+00:00
p1360
F0.012
tp1361
a(V2015-08-02 02:28:43+00:00
p1362
F0.012
tp1363
a(V2015-08-03 02:31:43+00:00
p1364
F0.012
tp1365
a(V2015-08-04 02:34:20+00:00
p1366
F0.012
tp1367
a(V2015-08-05 02:39:17+00:00
p1368
F0.012
tp1369
a(V2015-08-06 02:40:17+00:00
p1370
F0.012
tp1371
a(V2015-08-07 02:43:34+00:00
p1372
F0.012
tp1373
a(V2015-08-08 02:47:59+00:00
p1374
F0.012
tp1375
a(V2015-08-09 02:50:05+00:00
p1376
F0.012
tp1377
a(V2015-08-10 02:50:22+00:00
p1378
F0.012
tp1379
a(V2015-08-11 02:51:16+00:00
p1380
F0.012
tp1381
a(V2015-08-12 02:54:25+00:00
p1382
F0.012
tp1383
a(V2015-08-13 02:55:40+00:00
p1384
F0.012
tp1385
a(V2015-08-14 02:57:01+00:00
p1386
F0.012
tp1387
a(V2015-08-15 03:01:59+00:00
p1388
F0.012
tp1389
a(V2015-08-16 03:03:35+00:00
p1390
F0.012
tp1391
a(V2015-08-17 03:07:17+00:00
p1392
F0.012
tp1393
a(V2015-08-17 21:53:53+00:00
p1394
F0.012
tp1395
a(V2015-08-17 23:39:19+00:00
p1396
F0.012
tp1397
a(V2015-08-17 23:44:59+00:00
p1398
F0.012
tp1399
a(V2015-08-17 23:50:36+00:00
p1400
F0.012
tp1401
a(V2015-08-18 00:00:53+00:00
p1402
F0.012
tp1403
a(V2015-08-18 00:11:12+00:00
p1404
F0.012
tp1405
a(V2015-08-18 00:16:50+00:00
p1406
F0.012
tp1407
a(V2015-08-18 18:28:28+00:00
p1408
F0.01
tp1409
a(V2015-08-18 18:33:17+00:00
p1410
F0.012
tp1411
a(V2015-08-18 20:09:13+00:00
p1412
F0.009
tp1413
a(V2015-08-18 20:15:09+00:00
p1414
F0.012
tp1415
a(V2015-08-19 00:03:01+00:00
p1416
F0.0097
tp1417
a(V2015-08-19 00:11:54+00:00
p1418
F0.0095
tp1419
a(V2015-08-19 00:16:38+00:00
p1420
F0.0094
tp1421
a(V2015-08-19 00:29:56+00:00
p1422
F0.0104
tp1423
a(V2015-08-19 00:34:44+00:00
p1424
F0.0094
tp1425
a(V2015-08-19 00:39:16+00:00
p1426
F0.0104
tp1427
a(V2015-08-19 00:43:40+00:00
p1428
F0.0102
tp1429
a(V2015-08-19 01:03:54+00:00
p1430
F0.0101
tp1431
a(V2015-08-19 01:15:30+00:00
p1432
F0.01
tp1433
a(V2015-08-19 01:19:47+00:00
p1434
F0.0102
tp1435
a(V2015-08-19 01:24:14+00:00
p1436
F0.0103
tp1437
a(V2015-08-19 01:34:32+00:00
p1438
F0.0102
tp1439
a(V2015-08-19 01:40:18+00:00
p1440
F0.0105
tp1441
a(V2015-08-19 02:05:27+00:00
p1442
F0.0106
tp1443
a(V2015-08-19 02:10:09+00:00
p1444
F0.0105
tp1445
a(V2015-08-19 02:59:23+00:00
p1446
F0.0104
tp1447
a(V2015-08-19 03:03:52+00:00
p1448
F0.0105
tp1449
a(V2015-08-19 03:12:50+00:00
p1450
F0.0104
tp1451
a(V2015-08-19 03:17:24+00:00
p1452
F0.0106
tp1453
a(V2015-08-19 03:21:45+00:00
p1454
F0.0105
tp1455
a(V2015-08-19 03:30:36+00:00
p1456
F0.0106
tp1457
a(V2015-08-19 03:35:03+00:00
p1458
F0.0105
tp1459
a(V2015-08-19 03:43:47+00:00
p1460
F0.0106
tp1461
a(V2015-08-19 03:52:31+00:00
p1462
F0.0105
tp1463
a(V2015-08-19 04:01:08+00:00
p1464
F0.0106
tp1465
a(V2015-08-19 04:14:09+00:00
p1466
F0.0101
tp1467
a(V2015-08-19 04:18:28+00:00
p1468
F0.0102
tp1469
a(V2015-08-19 04:22:45+00:00
p1470
F0.0099
tp1471
a(V2015-08-19 04:26:58+00:00
p1472
F0.01
tp1473
a(V2015-08-19 04:31:16+00:00
p1474
F0.0097
tp1475
a(V2015-08-19 04:35:37+00:00
p1476
F0.0098
tp1477
a(V2015-08-19 05:05:43+00:00
p1478
F0.01
tp1479
a(V2015-08-19 05:10:05+00:00
p1480
F0.0103
tp1481
a(V2015-08-19 05:14:21+00:00
p1482
F0.0104
tp1483
a(V2015-08-19 05:27:28+00:00
p1484
F0.0105
tp1485
a(V2015-08-19 05:40:28+00:00
p1486
F0.0103
tp1487
a(V2015-08-19 05:44:53+00:00
p1488
F0.0102
tp1489
a(V2015-08-19 05:53:36+00:00
p1490
F0.0101
tp1491
a(V2015-08-19 05:57:50+00:00
p1492
F0.0099
tp1493
a(V2015-08-19 06:06:36+00:00
p1494
F0.0098
tp1495
a(V2015-08-19 06:11:02+00:00
p1496
F0.0096
tp1497
a(V2015-08-19 06:15:21+00:00
p1498
F0.0094
tp1499
a(V2015-08-19 07:17:00+00:00
p1500
F0.0095
tp1501
a(V2015-08-19 07:21:29+00:00
p1502
F0.0094
tp1503
a(V2015-08-19 07:25:51+00:00
p1504
F0.0096
tp1505
a(V2015-08-19 07:30:17+00:00
p1506
F0.0097
tp1507
a(V2015-08-19 07:39:17+00:00
p1508
F0.0098
tp1509
a(V2015-08-19 07:43:44+00:00
p1510
F0.0097
tp1511
a(V2015-08-19 07:57:01+00:00
p1512
F0.0098
tp1513
a(V2015-08-19 08:36:45+00:00
p1514
F0.0099
tp1515
a(V2015-08-19 09:59:31+00:00
p1516
F0.01
tp1517
a(V2015-08-19 10:56:10+00:00
p1518
F0.0101
tp1519
a(V2015-08-19 11:26:55+00:00
p1520
F0.0102
tp1521
a(V2015-08-19 12:02:07+00:00
p1522
F0.0103
tp1523
a(V2015-08-19 12:33:20+00:00
p1524
F0.0104
tp1525
a(V2015-08-19 12:42:39+00:00
p1526
F0.0105
tp1527
a(V2015-08-19 12:55:48+00:00
p1528
F0.0106
tp1529
a(V2015-08-19 13:35:00+00:00
p1530
F0.0105
tp1531
a(V2015-08-19 13:39:34+00:00
p1532
F0.0106
tp1533
a(V2015-08-19 14:01:13+00:00
p1534
F0.0107
tp1535
a(V2015-08-19 14:09:59+00:00
p1536
F0.0108
tp1537
a(V2015-08-19 14:32:05+00:00
p1538
F0.0107
tp1539
a(V2015-08-19 14:45:17+00:00
p1540
F0.0108
tp1541
a(V2015-08-19 14:49:52+00:00
p1542
F0.0109
tp1543
a(V2015-08-19 15:12:09+00:00
p1544
F0.011
tp1545
a(V2015-08-19 15:21:12+00:00
p1546
F0.0109
tp1547
a(V2015-08-19 15:25:45+00:00
p1548
F0.011
tp1549
a(V2015-08-19 15:30:12+00:00
p1550
F0.0109
tp1551
a(V2015-08-19 15:39:19+00:00
p1552
F0.011
tp1553
a(V2015-08-19 15:48:24+00:00
p1554
F0.0109
tp1555
a(V2015-08-19 16:02:02+00:00
p1556
F0.011
tp1557
a(V2015-08-19 16:06:41+00:00
p1558
F0.0111
tp1559
a(V2015-08-19 16:20:18+00:00
p1560
F0.0113
tp1561
a(V2015-08-19 16:24:50+00:00
p1562
F0.0117
tp1563
a(V2015-08-19 16:29:19+00:00
p1564
F0.0119
tp1565
a(V2015-08-19 16:33:52+00:00
p1566
F0.0118
tp1567
a(V2015-08-19 16:38:38+00:00
p1568
F0.0116
tp1569
a(V2015-08-19 16:43:25+00:00
p1570
F0.012
tp1571
a(V2015-08-19 22:33:27+00:00
p1572
F0.0116
tp1573
a(V2015-08-19 22:37:55+00:00
p1574
F0.0117
tp1575
a(V2015-08-19 22:42:36+00:00
p1576
F0.0118
tp1577
a(V2015-08-19 22:47:14+00:00
p1578
F0.0119
tp1579
a(V2015-08-19 22:51:49+00:00
p1580
F0.0118
tp1581
a(V2015-08-19 22:56:20+00:00
p1582
F0.012
tp1583
a(V2015-08-19 23:00:56+00:00
p1584
F0.0119
tp1585
a(V2015-08-19 23:05:17+00:00
p1586
F0.0117
tp1587
a(V2015-08-19 23:09:35+00:00
p1588
F0.0116
tp1589
a(V2015-08-19 23:13:53+00:00
p1590
F0.0115
tp1591
a(V2015-08-19 23:18:17+00:00
p1592
F0.0116
tp1593
a(V2015-08-19 23:27:06+00:00
p1594
F0.0115
tp1595
a(V2015-08-19 23:31:30+00:00
p1596
F0.0113
tp1597
a(V2015-08-19 23:44:32+00:00
p1598
F0.0111
tp1599
a(V2015-08-19 23:57:34+00:00
p1600
F0.0114
tp1601
a(V2015-08-20 00:02:02+00:00
p1602
F0.0113
tp1603
a(V2015-08-20 00:06:29+00:00
p1604
F0.0112
tp1605
a(V2015-08-20 00:10:48+00:00
p1606
F0.0111
tp1607
a(V2015-08-20 00:15:11+00:00
p1608
F0.0112
tp1609
a(V2015-08-20 00:19:57+00:00
p1610
F0.0111
tp1611
a(V2015-08-20 00:28:51+00:00
p1612
F0.0107
tp1613
a(V2015-08-20 00:33:20+00:00
p1614
F0.0105
tp1615
a(V2015-08-20 00:55:22+00:00
p1616
F0.0107
tp1617
a(V2015-08-20 00:59:47+00:00
p1618
F0.0108
tp1619
a(V2015-08-20 01:04:05+00:00
p1620
F0.0109
tp1621
a(V2015-08-20 01:52:56+00:00
p1622
F0.011
tp1623
a(V2015-08-20 02:06:14+00:00
p1624
F0.0109
tp1625
a(V2015-08-20 02:19:25+00:00
p1626
F0.0108
tp1627
a(V2015-08-20 02:59:14+00:00
p1628
F0.0107
tp1629
a(V2015-08-20 03:03:39+00:00
p1630
F0.0108
tp1631
a(V2015-08-20 03:21:44+00:00
p1632
F0.0109
tp1633
a(V2015-08-20 03:25:56+00:00
p1634
F0.0108
tp1635
a(V2015-08-20 04:19:15+00:00
p1636
F0.0105
tp1637
a(V2015-08-20 04:37:11+00:00
p1638
F0.0103
tp1639
a(V2015-08-20 04:46:11+00:00
p1640
F0.0102
tp1641
a(V2015-08-20 04:50:36+00:00
p1642
F0.0103
tp1643
a(V2015-08-20 04:55:09+00:00
p1644
F0.0102
tp1645
a(V2015-08-20 04:59:37+00:00
p1646
F0.0103
tp1647
a(V2015-08-20 05:08:40+00:00
p1648
F0.01
tp1649
a(V2015-08-20 05:26:34+00:00
p1650
F0.0102
tp1651
a(V2015-08-20 05:48:49+00:00
p1652
F0.0101
tp1653
a(V2015-08-20 05:57:35+00:00
p1654
F0.01
tp1655
a(V2015-08-20 06:24:46+00:00
p1656
F0.0098
tp1657
a(V2015-08-20 06:56:14+00:00
p1658
F0.0099
tp1659
a(V2015-08-20 07:05:10+00:00
p1660
F0.01
tp1661
a(V2015-08-20 07:09:41+00:00
p1662
F0.0099
tp1663
a(V2015-08-20 07:23:18+00:00
p1664
F0.01
tp1665
a(V2015-08-20 07:27:50+00:00
p1666
F0.0105
tp1667
a(V2015-08-20 07:50:30+00:00
p1668
F0.0106
tp1669
a(V2015-08-20 08:26:43+00:00
p1670
F0.0107
tp1671
a(V2015-08-20 08:35:48+00:00
p1672
F0.0108
tp1673
a(V2015-08-20 08:49:10+00:00
p1674
F0.0107
tp1675
a(V2015-08-20 08:58:03+00:00
p1676
F0.0106
tp1677
a(V2015-08-20 09:06:57+00:00
p1678
F0.0105
tp1679
a(V2015-08-20 09:11:27+00:00
p1680
F0.0106
tp1681
a(V2015-08-20 09:24:46+00:00
p1682
F0.0107
tp1683
a(V2015-08-20 10:09:16+00:00
p1684
F0.0108
tp1685
a(V2015-08-20 10:13:36+00:00
p1686
F0.0105
tp1687
a(V2015-08-20 10:22:29+00:00
p1688
F0.0102
tp1689
a(V2015-08-20 10:26:54+00:00
p1690
F0.0103
tp1691
a(V2015-08-20 10:35:51+00:00
p1692
F0.0101
tp1693
a(V2015-08-20 10:40:22+00:00
p1694
F0.01
tp1695
a(V2015-08-20 10:44:50+00:00
p1696
F0.0101
tp1697
a(V2015-08-20 10:58:18+00:00
p1698
F0.01
tp1699
a(V2015-08-20 11:07:19+00:00
p1700
F0.0101
tp1701
a(V2015-08-20 11:43:26+00:00
p1702
F0.0104
tp1703
a(V2015-08-20 11:47:56+00:00
p1704
F0.0105
tp1705
a(V2015-08-20 11:52:27+00:00
p1706
F0.0107
tp1707
a(V2015-08-20 11:56:54+00:00
p1708
F0.0109
tp1709
a(V2015-08-20 12:01:27+00:00
p1710
F0.011
tp1711
a(V2015-08-20 12:06:02+00:00
p1712
F0.0111
tp1713
a(V2015-08-20 12:10:23+00:00
p1714
F0.011
tp1715
a(V2015-08-20 12:14:55+00:00
p1716
F0.0111
tp1717
a(V2015-08-20 12:19:26+00:00
p1718
F0.0109
tp1719
a(V2015-08-20 12:23:52+00:00
p1720
F0.0106
tp1721
a(V2015-08-20 12:28:21+00:00
p1722
F0.0105
tp1723
a(V2015-08-20 12:37:45+00:00
p1724
F0.0109
tp1725
a(V2015-08-20 12:46:46+00:00
p1726
F0.0111
tp1727
a(V2015-08-20 12:51:12+00:00
p1728
F0.0114
tp1729
a(V2015-08-20 12:55:32+00:00
p1730
F0.0117
tp1731
a(V2015-08-20 13:00:00+00:00
p1732
F0.012
tp1733
a(V2015-08-20 13:31:09+00:00
p1734
F0.0119
tp1735
a(V2015-08-20 13:35:38+00:00
p1736
F0.0117
tp1737
a(V2015-08-20 13:40:04+00:00
p1738
F0.0118
tp1739
a(V2015-08-20 13:44:43+00:00
p1740
F0.012
tp1741
a(V2015-08-20 18:04:12+00:00
p1742
F0.0081
tp1743
a(V2015-08-20 18:05:12+00:00
p1744
F0.012
tp1745
a(V2015-08-20 18:08:58+00:00
p1746
F0.0081
tp1747
a(V2015-08-20 18:09:51+00:00
p1748
F0.012
tp1749
a(V2015-08-20 18:13:36+00:00
p1750
F0.0081
tp1751
a(V2015-08-20 18:14:29+00:00
p1752
F0.012
tp1753
a(V2015-08-20 18:22:53+00:00
p1754
F0.0081
tp1755
a(V2015-08-20 18:23:43+00:00
p1756
F0.012
tp1757
a(V2015-08-20 18:27:23+00:00
p1758
F0.0081
tp1759
a(V2015-08-20 18:28:16+00:00
p1760
F0.012
tp1761
a(V2015-08-20 18:31:53+00:00
p1762
F0.0081
tp1763
a(V2015-08-20 18:32:47+00:00
p1764
F0.012
tp1765
a(V2015-08-20 18:36:19+00:00
p1766
F0.0081
tp1767
a(V2015-08-20 18:37:14+00:00
p1768
F0.012
tp1769
a(V2015-08-20 18:40:45+00:00
p1770
F0.0081
tp1771
a(V2015-08-20 18:41:36+00:00
p1772
F0.012
tp1773
a(V2015-08-20 18:45:22+00:00
p1774
F0.0081
tp1775
a(V2015-08-20 18:46:16+00:00
p1776
F0.012
tp1777
a(V2015-08-20 18:49:54+00:00
p1778
F0.0081
tp1779
a(V2015-08-20 18:50:48+00:00
p1780
F0.012
tp1781
a(V2015-08-20 18:54:40+00:00
p1782
F0.0081
tp1783
a(V2015-08-20 18:55:34+00:00
p1784
F0.012
tp1785
a(V2015-08-20 23:10:03+00:00
p1786
F0.0118
tp1787
a(V2015-08-20 23:18:47+00:00
p1788
F0.0119
tp1789
a(V2015-08-20 23:23:09+00:00
p1790
F0.0115
tp1791
a(V2015-08-20 23:27:25+00:00
p1792
F0.0114
tp1793
a(V2015-08-20 23:36:09+00:00
p1794
F0.0112
tp1795
a(V2015-08-20 23:40:23+00:00
p1796
F0.0113
tp1797
a(V2015-08-20 23:53:25+00:00
p1798
F0.0116
tp1799
a(V2015-08-21 00:06:33+00:00
p1800
F0.0117
tp1801
a(V2015-08-21 00:10:50+00:00
p1802
F0.0116
tp1803
a(V2015-08-21 00:24:04+00:00
p1804
F0.0113
tp1805
a(V2015-08-21 00:28:31+00:00
p1806
F0.0108
tp1807
a(V2015-08-21 00:32:52+00:00
p1808
F0.0107
tp1809
a(V2015-08-21 00:41:30+00:00
p1810
F0.0106
tp1811
a(V2015-08-21 00:55:03+00:00
p1812
F0.0107
tp1813
a(V2015-08-21 01:03:28+00:00
p1814
F0.0106
tp1815
a(V2015-08-21 01:07:50+00:00
p1816
F0.0105
tp1817
a(V2015-08-21 01:16:23+00:00
p1818
F0.0104
tp1819
a(V2015-08-21 01:25:00+00:00
p1820
F0.0105
tp1821
a(V2015-08-21 01:47:06+00:00
p1822
F0.0106
tp1823
a(V2015-08-21 01:51:25+00:00
p1824
F0.0107
tp1825
a(V2015-08-21 01:59:53+00:00
p1826
F0.0111
tp1827
a(V2015-08-21 02:04:22+00:00
p1828
F0.011
tp1829
a(V2015-08-21 02:08:36+00:00
p1830
F0.0108
tp1831
a(V2015-08-21 02:13:04+00:00
p1832
F0.0111
tp1833
a(V2015-08-21 02:17:22+00:00
p1834
F0.0108
tp1835
a(V2015-08-21 02:21:43+00:00
p1836
F0.0106
tp1837
a(V2015-08-21 02:30:19+00:00
p1838
F0.0105
tp1839
a(V2015-08-21 03:26:41+00:00
p1840
F0.0104
tp1841
a(V2015-08-21 03:35:26+00:00
p1842
F0.0105
tp1843
a(V2015-08-21 04:14:02+00:00
p1844
F0.0102
tp1845
a(V2015-08-21 04:18:20+00:00
p1846
F0.0103
tp1847
a(V2015-08-21 04:22:33+00:00
p1848
F0.01
tp1849
a(V2015-08-21 04:26:50+00:00
p1850
F0.0101
tp1851
a(V2015-08-21 04:39:37+00:00
p1852
F0.0097
tp1853
a(V2015-08-21 04:52:19+00:00
p1854
F0.0099
tp1855
a(V2015-08-21 04:56:34+00:00
p1856
F0.01
tp1857
a(V2015-08-21 05:04:57+00:00
p1858
F0.0102
tp1859
a(V2015-08-21 05:17:43+00:00
p1860
F0.0104
tp1861
a(V2015-08-21 05:21:58+00:00
p1862
F0.0102
tp1863
a(V2015-08-21 05:26:08+00:00
p1864
F0.0099
tp1865
a(V2015-08-21 05:30:30+00:00
p1866
F0.01
tp1867
a(V2015-08-21 05:34:39+00:00
p1868
F0.0098
tp1869
a(V2015-08-21 05:51:27+00:00
p1870
F0.0099
tp1871
a(V2015-08-21 05:59:52+00:00
p1872
F0.0098
tp1873
a(V2015-08-21 06:17:08+00:00
p1874
F0.0099
tp1875
a(V2015-08-21 06:30:00+00:00
p1876
F0.0098
tp1877
a(V2015-08-21 07:26:05+00:00
p1878
F0.0097
tp1879
a(V2015-08-21 08:09:47+00:00
p1880
F0.0098
tp1881
a(V2015-08-21 09:53:08+00:00
p1882
F0.0097
tp1883
a(V2015-08-21 09:57:24+00:00
p1884
F0.0098
tp1885
a(V2015-08-21 10:36:06+00:00
p1886
F0.0099
tp1887
a(V2015-08-21 10:40:27+00:00
p1888
F0.01
tp1889
a(V2015-08-21 10:57:34+00:00
p1890
F0.0102
tp1891
a(V2015-08-21 11:01:51+00:00
p1892
F0.0103
tp1893
a(V2015-08-21 11:06:16+00:00
p1894
F0.0104
tp1895
a(V2015-08-21 11:10:39+00:00
p1896
F0.0103
tp1897
a(V2015-08-21 11:28:12+00:00
p1898
F0.0104
tp1899
a(V2015-08-21 11:58:13+00:00
p1900
F0.0107
tp1901
a(V2015-08-21 12:02:39+00:00
p1902
F0.0109
tp1903
a(V2015-08-21 12:11:21+00:00
p1904
F0.0112
tp1905
a(V2015-08-21 12:20:00+00:00
p1906
F0.0114
tp1907
a(V2015-08-21 12:24:25+00:00
p1908
F0.0116
tp1909
a(V2015-08-21 12:33:11+00:00
p1910
F0.012
tp1911
a(V2015-08-22 04:30:59+00:00
p1912
F0.0116
tp1913
a(V2015-08-22 04:39:36+00:00
p1914
F0.0114
tp1915
a(V2015-08-22 04:57:04+00:00
p1916
F0.0113
tp1917
a(V2015-08-22 05:05:39+00:00
p1918
F0.0114
tp1919
a(V2015-08-22 05:22:49+00:00
p1920
F0.0115
tp1921
a(V2015-08-22 05:27:13+00:00
p1922
F0.0114
tp1923
a(V2015-08-22 06:10:02+00:00
p1924
F0.0113
tp1925
a(V2015-08-22 06:23:01+00:00
p1926
F0.0114
tp1927
a(V2015-08-22 06:27:21+00:00
p1928
F0.0113
tp1929
a(V2015-08-22 06:35:59+00:00
p1930
F0.0114
tp1931
a(V2015-08-22 06:44:38+00:00
p1932
F0.0113
tp1933
a(V2015-08-22 06:48:53+00:00
p1934
F0.0114
tp1935
a(V2015-08-22 06:57:25+00:00
p1936
F0.0113
tp1937
a(V2015-08-22 07:01:42+00:00
p1938
F0.0114
tp1939
a(V2015-08-22 07:10:20+00:00
p1940
F0.0113
tp1941
a(V2015-08-22 08:01:53+00:00
p1942
F0.0114
tp1943
a(V2015-08-22 08:06:07+00:00
p1944
F0.0113
tp1945
a(V2015-08-22 08:18:57+00:00
p1946
F0.0114
tp1947
a(V2015-08-22 08:31:40+00:00
p1948
F0.0113
tp1949
a(V2015-08-22 09:30:55+00:00
p1950
F0.0114
tp1951
a(V2015-08-22 09:35:14+00:00
p1952
F0.0113
tp1953
a(V2015-08-22 10:12:51+00:00
p1954
F0.0114
tp1955
a(V2015-08-22 10:21:26+00:00
p1956
F0.0113
tp1957
a(V2015-08-22 10:25:47+00:00
p1958
F0.0114
tp1959
a(V2015-08-22 10:38:37+00:00
p1960
F0.0116
tp1961
a(V2015-08-22 10:51:18+00:00
p1962
F0.0118
tp1963
a(V2015-08-22 11:03:56+00:00
p1964
F0.0119
tp1965
a(V2015-08-22 11:25:56+00:00
p1966
F0.0118
tp1967
a(V2015-08-22 11:56:12+00:00
p1968
F0.012
tp1969
a(V2015-08-23 04:33:20+00:00
p1970
F0.0119
tp1971
a(V2015-08-23 04:37:48+00:00
p1972
F0.0118
tp1973
a(V2015-08-23 04:46:24+00:00
p1974
F0.0116
tp1975
a(V2015-08-23 04:50:43+00:00
p1976
F0.0115
tp1977
a(V2015-08-23 04:59:24+00:00
p1978
F0.0116
tp1979
a(V2015-08-23 05:03:45+00:00
p1980
F0.0115
tp1981
a(V2015-08-23 05:16:48+00:00
p1982
F0.0116
tp1983
a(V2015-08-23 06:38:46+00:00
p1984
F0.0114
tp1985
a(V2015-08-23 07:45:36+00:00
p1986
F0.0113
tp1987
a(V2015-08-23 07:48:06+00:00
p1988
F0.0115
tp1989
a(V2015-08-23 07:53:00+00:00
p1990
F0.0114
tp1991
a(V2015-08-23 07:57:55+00:00
p1992
F0.0116
tp1993
a(V2015-08-23 08:21:01+00:00
p1994
F0.0114
tp1995
a(V2015-08-23 08:43:14+00:00
p1996
F0.0116
tp1997
a(V2015-08-23 08:53:07+00:00
p1998
F0.0118
tp1999
a(V2015-08-23 09:00:30+00:00
p2000
F0.0119
tp2001
a(V2015-08-23 09:05:40+00:00
p2002
F0.0118
tp2003
a(V2015-08-23 09:12:58+00:00
p2004
F0.0119
tp2005
a(V2015-08-23 09:17:51+00:00
p2006
F0.0116
tp2007
a(V2015-08-23 10:47:39+00:00
p2008
F0.0117
tp2009
a(V2015-08-23 10:52:39+00:00
p2010
F0.0118
tp2011
a(V2015-08-23 11:00:28+00:00
p2012
F0.012
tp2013
a(V2015-08-24 04:32:33+00:00
p2014
F0.0119
tp2015
a(V2015-08-24 04:40:04+00:00
p2016
F0.0117
tp2017
a(V2015-08-24 04:45:12+00:00
p2018
F0.0114
tp2019
a(V2015-08-24 04:50:20+00:00
p2020
F0.0113
tp2021
a(V2015-08-24 05:00:29+00:00
p2022
F0.0115
tp2023
a(V2015-08-24 05:18:08+00:00
p2024
F0.0116
tp2025
a(V2015-08-24 05:45:40+00:00
p2026
F0.0115
tp2027
a(V2015-08-24 05:50:41+00:00
p2028
F0.0116
tp2029
a(V2015-08-24 06:00:27+00:00
p2030
F0.0114
tp2031
a(V2015-08-24 06:10:19+00:00
p2032
F0.0113
tp2033
a(V2015-08-24 06:15:20+00:00
p2034
F0.0111
tp2035
a(V2015-08-24 06:25:09+00:00
p2036
F0.0112
tp2037
a(V2015-08-24 08:02:46+00:00
p2038
F0.0113
tp2039
a(V2015-08-24 08:23:53+00:00
p2040
F0.0112
tp2041
a(V2015-08-24 08:28:51+00:00
p2042
F0.0111
tp2043
a(V2015-08-24 08:36:40+00:00
p2044
F0.0112
tp2045
a(V2015-08-24 08:54:16+00:00
p2046
F0.0111
tp2047
a(V2015-08-24 08:56:43+00:00
p2048
F0.0112
tp2049
a(V2015-08-24 08:59:14+00:00
p2050
F0.0111
tp2051
a(V2015-08-24 09:01:43+00:00
p2052
F0.0112
tp2053
a(V2015-08-24 09:04:17+00:00
p2054
F0.0111
tp2055
a(V2015-08-24 09:06:45+00:00
p2056
F0.0112
tp2057
a(V2015-08-24 09:09:25+00:00
p2058
F0.0111
tp2059
a(V2015-08-24 09:11:52+00:00
p2060
F0.0112
tp2061
a(V2015-08-24 09:14:32+00:00
p2062
F0.011
tp2063
a(V2015-08-24 09:17:01+00:00
p2064
F0.0111
tp2065
a(V2015-08-24 09:19:40+00:00
p2066
F0.0109
tp2067
a(V2015-08-24 09:22:07+00:00
p2068
F0.011
tp2069
a(V2015-08-24 09:24:54+00:00
p2070
F0.0109
tp2071
a(V2015-08-24 09:29:55+00:00
p2072
F0.011
tp2073
a(V2015-08-24 09:35:14+00:00
p2074
F0.0109
tp2075
a(V2015-08-24 09:37:46+00:00
p2076
F0.011
tp2077
a(V2015-08-24 09:42:43+00:00
p2078
F0.0109
tp2079
a(V2015-08-24 09:47:42+00:00
p2080
F0.011
tp2081
a(V2015-08-24 09:57:41+00:00
p2082
F0.0109
tp2083
a(V2015-08-24 10:00:06+00:00
p2084
F0.011
tp2085
a(V2015-08-24 10:05:11+00:00
p2086
F0.0111
tp2087
a(V2015-08-24 10:07:37+00:00
p2088
F0.011
tp2089
a(V2015-08-24 10:17:32+00:00
p2090
F0.0111
tp2091
a(V2015-08-24 10:29:51+00:00
p2092
F0.0112
tp2093
a(V2015-08-24 10:32:25+00:00
p2094
F0.0113
tp2095
a(V2015-08-24 10:34:57+00:00
p2096
F0.0114
tp2097
a(V2015-08-24 10:42:28+00:00
p2098
F0.0117
tp2099
a(V2015-08-24 10:52:22+00:00
p2100
F0.0118
tp2101
a(V2015-08-24 10:57:14+00:00
p2102
F0.0117
tp2103
a(V2015-08-24 11:02:13+00:00
p2104
F0.0119
tp2105
a(V2015-08-24 11:09:57+00:00
p2106
F0.012
tp2107
a(V2015-08-24 11:17:35+00:00
p2108
F0.0119
tp2109
a(V2015-08-24 11:19:59+00:00
p2110
F0.012
tp2111
a(V2015-08-24 11:22:32+00:00
p2112
F0.0119
tp2113
a(V2015-08-24 11:25:14+00:00
p2114
F0.012
tp2115
a(V2015-08-24 11:47:39+00:00
p2116
F0.0119
tp2117
a(V2015-08-24 11:50:09+00:00
p2118
F0.012
tp2119
a(V2015-08-25 03:50:45+00:00
p2120
F0.0118
tp2121
a(V2015-08-25 04:06:01+00:00
p2122
F0.0117
tp2123
a(V2015-08-25 04:13:49+00:00
p2124
F0.0114
tp2125
a(V2015-08-25 04:18:56+00:00
p2126
F0.0115
tp2127
a(V2015-08-25 04:21:31+00:00
p2128
F0.0111
tp2129
a(V2015-08-25 04:29:05+00:00
p2130
F0.011
tp2131
a(V2015-08-25 04:36:44+00:00
p2132
F0.0111
tp2133
a(V2015-08-25 04:39:15+00:00
p2134
F0.011
tp2135
a(V2015-08-25 04:41:45+00:00
p2136
F0.0111
tp2137
a(V2015-08-25 04:44:17+00:00
p2138
F0.011
tp2139
a(V2015-08-25 05:20:11+00:00
p2140
F0.0111
tp2141
a(V2015-08-25 06:01:14+00:00
p2142
F0.0112
tp2143
a(V2015-08-25 06:03:45+00:00
p2144
F0.0111
tp2145
a(V2015-08-25 06:11:20+00:00
p2146
F0.011
tp2147
a(V2015-08-25 06:19:08+00:00
p2148
F0.0109
tp2149
a(V2015-08-25 07:02:44+00:00
p2150
F0.011
tp2151
a(V2015-08-25 07:05:17+00:00
p2152
F0.0109
tp2153
a(V2015-08-25 07:07:50+00:00
p2154
F0.011
tp2155
a(V2015-08-25 07:10:30+00:00
p2156
F0.0109
tp2157
a(V2015-08-25 07:52:11+00:00
p2158
F0.011
tp2159
a(V2015-08-25 07:54:43+00:00
p2160
F0.0109
tp2161
a(V2015-08-25 08:28:55+00:00
p2162
F0.011
tp2163
a(V2015-08-25 08:31:28+00:00
p2164
F0.0109
tp2165
a(V2015-08-25 08:34:01+00:00
p2166
F0.011
tp2167
a(V2015-08-25 09:09:50+00:00
p2168
F0.0111
tp2169
a(V2015-08-25 09:48:08+00:00
p2170
F0.0113
tp2171
a(V2015-08-25 09:53:14+00:00
p2172
F0.0114
tp2173
a(V2015-08-25 09:55:49+00:00
p2174
F0.0115
tp2175
a(V2015-08-25 09:58:25+00:00
p2176
F0.0116
tp2177
a(V2015-08-25 10:08:35+00:00
p2178
F0.0115
tp2179
a(V2015-08-25 10:11:05+00:00
p2180
F0.0116
tp2181
a(V2015-08-25 10:28:53+00:00
p2182
F0.0117
tp2183
a(V2015-08-25 10:31:25+00:00
p2184
F0.0116
tp2185
a(V2015-08-25 10:33:57+00:00
p2186
F0.0117
tp2187
a(V2015-08-25 10:41:29+00:00
p2188
F0.0118
tp2189
a(V2015-08-25 10:44:00+00:00
p2190
F0.0117
tp2191
a(V2015-08-25 10:46:30+00:00
p2192
F0.0118
tp2193
a(V2015-08-25 10:59:05+00:00
p2194
F0.0119
tp2195
a(V2015-08-25 11:01:41+00:00
p2196
F0.012
tp2197
a(V2015-08-26 06:24:04+00:00
p2198
F0.0118
tp2199
a(V2015-08-26 06:26:36+00:00
p2200
F0.012
tp2201
a(V2015-08-26 06:31:40+00:00
p2202
F0.0118
tp2203
a(V2015-08-26 06:36:44+00:00
p2204
F0.0115
tp2205
a(V2015-08-26 06:44:25+00:00
p2206
F0.0109
tp2207
a(V2015-08-26 06:46:58+00:00
p2208
F0.0111
tp2209
a(V2015-08-26 06:49:31+00:00
p2210
F0.0112
tp2211
a(V2015-08-26 06:54:38+00:00
p2212
F0.0115
tp2213
a(V2015-08-26 07:02:19+00:00
p2214
F0.0114
tp2215
a(V2015-08-26 07:04:47+00:00
p2216
F0.0115
tp2217
a(V2015-08-26 07:07:23+00:00
p2218
F0.0114
tp2219
a(V2015-08-26 07:09:54+00:00
p2220
F0.0116
tp2221
a(V2015-08-26 07:12:28+00:00
p2222
F0.0118
tp2223
a(V2015-08-26 07:17:36+00:00
p2224
F0.0114
tp2225
a(V2015-08-26 07:20:12+00:00
p2226
F0.0115
tp2227
a(V2015-08-26 07:32:57+00:00
p2228
F0.0116
tp2229
a(V2015-08-26 07:35:31+00:00
p2230
F0.0115
tp2231
a(V2015-08-26 07:38:00+00:00
p2232
F0.0116
tp2233
a(V2015-08-26 07:48:10+00:00
p2234
F0.0114
tp2235
a(V2015-08-26 07:50:40+00:00
p2236
F0.0115
tp2237
a(V2015-08-26 07:53:08+00:00
p2238
F0.0116
tp2239
a(V2015-08-26 08:00:52+00:00
p2240
F0.0115
tp2241
a(V2015-08-26 08:03:27+00:00
p2242
F0.0114
tp2243
a(V2015-08-26 08:06:01+00:00
p2244
F0.0117
tp2245
a(V2015-08-26 08:08:40+00:00
p2246
F0.0116
tp2247
a(V2015-08-26 08:13:55+00:00
p2248
F0.0115
tp2249
a(V2015-08-26 08:16:35+00:00
p2250
F0.0117
tp2251
a(V2015-08-26 08:19:07+00:00
p2252
F0.0116
tp2253
a(V2015-08-26 08:21:43+00:00
p2254
F0.0118
tp2255
a(V2015-08-26 08:34:20+00:00
p2256
F0.0117
tp2257
a(V2015-08-26 08:39:21+00:00
p2258
F0.0118
tp2259
a(V2015-08-26 08:41:54+00:00
p2260
F0.0116
tp2261
a(V2015-08-26 08:44:31+00:00
p2262
F0.0115
tp2263
a(V2015-08-26 08:57:00+00:00
p2264
F0.0117
tp2265
a(V2015-08-26 08:59:38+00:00
p2266
F0.0119
tp2267
a(V2015-08-26 09:02:08+00:00
p2268
F0.012
tp2269
a(V2015-08-26 09:04:44+00:00
p2270
F0.0119
tp2271
a(V2015-08-26 09:07:23+00:00
p2272
F0.012
tp2273
a(V2015-08-26 09:09:54+00:00
p2274
F0.0118
tp2275
a(V2015-08-26 09:12:29+00:00
p2276
F0.0119
tp2277
a(V2015-08-26 09:27:46+00:00
p2278
F0.0118
tp2279
a(V2015-08-26 09:30:26+00:00
p2280
F0.0116
tp2281
a(V2015-08-26 09:35:37+00:00
p2282
F0.0117
tp2283
a(V2015-08-26 09:40:43+00:00
p2284
F0.0116
tp2285
a(V2015-08-26 09:43:14+00:00
p2286
F0.0117
tp2287
a(V2015-08-26 10:06:28+00:00
p2288
F0.0116
tp2289
a(V2015-08-26 10:09:07+00:00
p2290
F0.0117
tp2291
a(V2015-08-26 10:11:44+00:00
p2292
F0.0116
tp2293
a(V2015-08-26 10:14:16+00:00
p2294
F0.0118
tp2295
a(V2015-08-26 10:16:53+00:00
p2296
F0.0117
tp2297
a(V2015-08-26 10:19:27+00:00
p2298
F0.0118
tp2299
a(V2015-08-26 10:24:32+00:00
p2300
F0.012
tp2301
a(V2015-08-27 06:40:17+00:00
p2302
F0.0114
tp2303
a(V2015-08-27 06:43:14+00:00
p2304
F0.0115
tp2305
a(V2015-08-27 06:46:10+00:00
p2306
F0.0113
tp2307
a(V2015-08-27 06:49:03+00:00
p2308
F0.0112
tp2309
a(V2015-08-27 06:52:04+00:00
p2310
F0.0113
tp2311
a(V2015-08-27 06:54:56+00:00
p2312
F0.0112
tp2313
a(V2015-08-27 06:57:48+00:00
p2314
F0.0113
tp2315
a(V2015-08-27 07:00:44+00:00
p2316
F0.0112
tp2317
a(V2015-08-27 07:03:39+00:00
p2318
F0.0115
tp2319
a(V2015-08-27 07:09:31+00:00
p2320
F0.0117
tp2321
a(V2015-08-27 07:12:28+00:00
p2322
F0.0116
tp2323
a(V2015-08-27 07:18:29+00:00
p2324
F0.0115
tp2325
a(V2015-08-27 07:21:25+00:00
p2326
F0.0116
tp2327
a(V2015-08-27 07:24:16+00:00
p2328
F0.0115
tp2329
a(V2015-08-27 07:27:11+00:00
p2330
F0.0116
tp2331
a(V2015-08-27 07:30:11+00:00
p2332
F0.0115
tp2333
a(V2015-08-27 07:33:09+00:00
p2334
F0.0116
tp2335
a(V2015-08-27 07:36:04+00:00
p2336
F0.0115
tp2337
a(V2015-08-27 07:41:57+00:00
p2338
F0.0114
tp2339
a(V2015-08-27 07:53:35+00:00
p2340
F0.0115
tp2341
a(V2015-08-27 07:56:30+00:00
p2342
F0.0116
tp2343
a(V2015-08-27 07:59:23+00:00
p2344
F0.0114
tp2345
a(V2015-08-27 08:02:24+00:00
p2346
F0.0116
tp2347
a(V2015-08-27 08:08:22+00:00
p2348
F0.0117
tp2349
a(V2015-08-27 08:11:28+00:00
p2350
F0.0116
tp2351
a(V2015-08-27 08:14:27+00:00
p2352
F0.0119
tp2353
a(V2015-08-27 08:20:23+00:00
p2354
F0.012
tp2355
a(V2015-08-28 06:35:08+00:00
p2356
F0.0119
tp2357
a(V2015-08-28 06:37:59+00:00
p2358
F0.012
tp2359
a(V2015-08-28 06:52:17+00:00
p2360
F0.0119
tp2361
a(V2015-08-28 06:55:04+00:00
p2362
F0.0116
tp2363
a(V2015-08-28 06:58:01+00:00
p2364
F0.0115
tp2365
a(V2015-08-28 07:00:50+00:00
p2366
F0.0116
tp2367
a(V2015-08-28 07:09:26+00:00
p2368
F0.0115
tp2369
a(V2015-08-28 07:12:22+00:00
p2370
F0.0116
tp2371
a(V2015-08-28 07:18:03+00:00
p2372
F0.0117
tp2373
a(V2015-08-28 07:20:58+00:00
p2374
F0.0116
tp2375
a(V2015-08-28 07:23:51+00:00
p2376
F0.0117
tp2377
a(V2015-08-28 07:26:44+00:00
p2378
F0.0114
tp2379
a(V2015-08-28 07:29:37+00:00
p2380
F0.0116
tp2381
a(V2015-08-28 07:32:26+00:00
p2382
F0.0118
tp2383
a(V2015-08-28 07:35:26+00:00
p2384
F0.012
tp2385
a(V2015-08-29 07:35:53+00:00
p2386
F0.012
tp2387
a(V2015-08-30 07:38:22+00:00
p2388
F0.012
tp2389
a(V2015-08-31 07:39:02+00:00
p2390
F0.012
tp2391
aV0.067
p2392
tp2393
.