((dp0
S'OS'
p1
S'Linux'
p2
sS'region'
p3
S'us-east-1'
p4
sS'AZ'
p5
S'b'
p6
sS'type'
p7
S'm3.medium'
p8
s(lp9
(V2015-03-12 10:13:57+00:00
p10
F0.452
tp11
a(V2015-03-13 10:17:10+00:00
p12
F0.452
tp13
a(V2015-03-14 10:20:10+00:00
p14
F0.452
tp15
a(V2015-03-15 10:22:14+00:00
p16
F0.452
tp17
a(V2015-03-16 10:25:09+00:00
p18
F0.452
tp19
a(V2015-03-17 10:27:08+00:00
p20
F0.452
tp21
a(V2015-03-18 10:28:24+00:00
p22
F0.452
tp23
a(V2015-03-18 15:55:36+00:00
p24
F0.1131
tp25
a(V2015-03-19 15:57:39+00:00
p26
F0.1131
tp27
a(V2015-03-20 16:03:39+00:00
p28
F0.1131
tp29
a(V2015-03-21 16:06:44+00:00
p30
F0.1131
tp31
a(V2015-03-22 16:06:46+00:00
p32
F0.1131
tp33
a(V2015-03-23 16:10:44+00:00
p34
F0.1131
tp35
a(V2015-03-24 16:11:12+00:00
p36
F0.1131
tp37
a(V2015-03-25 12:22:34+00:00
p38
F0.452
tp39
a(V2015-03-25 13:27:06+00:00
p40
F0.1131
tp41
a(V2015-03-25 14:33:40+00:00
p42
F0.452
tp43
a(V2015-03-25 15:26:39+00:00
p44
F0.1131
tp45
a(V2015-03-25 20:17:04+00:00
p46
F0.15
tp47
a(V2015-03-25 22:59:19+00:00
p48
F0.1131
tp49
a(V2015-03-26 10:08:47+00:00
p50
F0.45
tp51
a(V2015-03-26 10:25:43+00:00
p52
F0.1131
tp53
a(V2015-03-26 14:52:26+00:00
p54
F0.452
tp55
a(V2015-03-26 16:15:21+00:00
p56
F0.1131
tp57
a(V2015-03-27 16:20:52+00:00
p58
F0.1131
tp59
a(V2015-03-28 16:21:50+00:00
p60
F0.1131
tp61
a(V2015-03-29 16:24:54+00:00
p62
F0.1131
tp63
a(V2015-03-30 16:26:00+00:00
p64
F0.1131
tp65
a(V2015-03-31 16:28:21+00:00
p66
F0.1131
tp67
a(V2015-04-01 16:34:08+00:00
p68
F0.1131
tp69
a(V2015-04-02 04:00:50+00:00
p70
F0.452
tp71
a(V2015-04-02 06:46:22+00:00
p72
F0.1131
tp73
a(V2015-04-02 10:01:52+00:00
p74
F0.452
tp75
a(V2015-04-02 11:00:32+00:00
p76
F0.1131
tp77
a(V2015-04-02 11:06:36+00:00
p78
F0.452
tp79
a(V2015-04-03 11:09:56+00:00
p80
F0.452
tp81
a(V2015-04-04 11:14:57+00:00
p82
F0.452
tp83
a(V2015-04-05 11:16:13+00:00
p84
F0.452
tp85
a(V2015-04-06 11:21:15+00:00
p86
F0.452
tp87
a(V2015-04-07 08:54:41+00:00
p88
F0.1131
tp89
a(V2015-04-08 08:54:54+00:00
p90
F0.1131
tp91
a(V2015-04-08 12:44:53+00:00
p92
F0.452
tp93
a(V2015-04-08 12:51:18+00:00
p94
F0.1131
tp95
a(V2015-04-08 13:57:51+00:00
p96
F0.452
tp97
a(V2015-04-09 14:00:50+00:00
p98
F0.452
tp99
a(V2015-04-09 23:59:37+00:00
p100
F0.5
tp101
a(V2015-04-10 00:18:53+00:00
p102
F0.1131
tp103
a(V2015-04-11 15:30:07+00:00
p104
F0.1131
tp105
a(V2015-04-12 15:33:39+00:00
p106
F0.1131
tp107
a(V2015-04-13 10:22:04+00:00
p108
F0.452
tp109
a(V2015-04-13 11:24:36+00:00
p110
F0.1131
tp111
a(V2015-04-13 12:32:41+00:00
p112
F0.452
tp113
a(V2015-04-13 13:48:54+00:00
p114
F0.1131
tp115
a(V2015-04-13 14:08:10+00:00
p116
F0.452
tp117
a(V2015-04-13 15:20:17+00:00
p118
F0.1131
tp119
a(V2015-04-13 15:26:54+00:00
p120
F0.452
tp121
a(V2015-04-14 07:33:30+00:00
p122
F0.1131
tp123
a(V2015-04-14 08:42:41+00:00
p124
F0.452
tp125
a(V2015-04-14 09:29:16+00:00
p126
F0.1131
tp127
a(V2015-04-14 14:14:57+00:00
p128
F0.452
tp129
a(V2015-04-14 15:35:34+00:00
p130
F0.1131
tp131
a(V2015-04-14 15:47:51+00:00
p132
F0.452
tp133
a(V2015-04-15 15:52:01+00:00
p134
F0.452
tp135
a(V2015-04-16 07:29:47+00:00
p136
F0.1131
tp137
a(V2015-04-16 08:21:31+00:00
p138
F0.452
tp139
a(V2015-04-17 08:23:50+00:00
p140
F0.452
tp141
a(V2015-04-17 11:33:07+00:00
p142
F0.1131
tp143
a(V2015-04-18 11:37:24+00:00
p144
F0.1131
tp145
a(V2015-04-19 11:39:13+00:00
p146
F0.1131
tp147
a(V2015-04-20 08:03:47+00:00
p148
F0.452
tp149
a(V2015-04-20 08:50:06+00:00
p150
F0.1131
tp151
a(V2015-04-20 09:07:32+00:00
p152
F0.452
tp153
a(V2015-04-20 09:53:47+00:00
p154
F0.1131
tp155
a(V2015-04-20 11:10:51+00:00
p156
F0.452
tp157
a(V2015-04-21 11:13:08+00:00
p158
F0.452
tp159
a(V2015-04-21 14:46:07+00:00
p160
F0.1131
tp161
a(V2015-04-21 15:19:07+00:00
p162
F0.452
tp163
a(V2015-04-22 14:56:38+00:00
p164
F0.1131
tp165
a(V2015-04-22 15:00:44+00:00
p166
F0.452
tp167
a(V2015-04-22 15:03:22+00:00
p168
F0.1131
tp169
a(V2015-04-22 15:07:23+00:00
p170
F0.452
tp171
a(V2015-04-22 15:29:34+00:00
p172
F0.1131
tp173
a(V2015-04-22 15:33:47+00:00
p174
F0.452
tp175
a(V2015-04-22 15:36:09+00:00
p176
F0.1131
tp177
a(V2015-04-22 15:43:52+00:00
p178
F0.452
tp179
a(V2015-04-23 03:16:18+00:00
p180
F0.1131
tp181
a(V2015-04-23 12:27:00+00:00
p182
F0.452
tp183
a(V2015-04-23 13:23:21+00:00
p184
F0.1131
tp185
a(V2015-04-23 14:18:58+00:00
p186
F0.452
tp187
a(V2015-04-23 16:01:10+00:00
p188
F0.1131
tp189
a(V2015-04-24 13:01:38+00:00
p190
F0.452
tp191
a(V2015-04-24 13:57:38+00:00
p192
F0.1131
tp193
a(V2015-04-24 15:00:35+00:00
p194
F0.452
tp195
a(V2015-04-25 15:01:36+00:00
p196
F0.452
tp197
a(V2015-04-26 15:03:41+00:00
p198
F0.452
tp199
a(V2015-04-27 15:09:27+00:00
p200
F0.452
tp201
a(V2015-04-27 16:25:13+00:00
p202
F0.1131
tp203
a(V2015-04-28 07:34:29+00:00
p204
F0.7
tp205
a(V2015-04-29 07:38:36+00:00
p206
F0.7
tp207
a(V2015-04-30 07:39:26+00:00
p208
F0.7
tp209
a(V2015-05-01 07:44:33+00:00
p210
F0.7
tp211
a(V2015-05-02 07:47:04+00:00
p212
F0.7
tp213
a(V2015-05-03 07:53:26+00:00
p214
F0.7
tp215
a(V2015-05-04 08:00:33+00:00
p216
F0.7
tp217
a(V2015-05-05 08:08:34+00:00
p218
F0.7
tp219
a(V2015-05-06 08:10:55+00:00
p220
F0.7
tp221
a(V2015-05-07 08:18:20+00:00
p222
F0.7
tp223
a(V2015-05-08 08:21:50+00:00
p224
F0.7
tp225
a(V2015-05-09 08:24:17+00:00
p226
F0.7
tp227
a(V2015-05-10 08:24:29+00:00
p228
F0.7
tp229
a(V2015-05-11 08:27:49+00:00
p230
F0.7
tp231
a(V2015-05-12 08:27:53+00:00
p232
F0.7
tp233
a(V2015-05-13 08:29:12+00:00
p234
F0.7
tp235
a(V2015-05-14 08:30:40+00:00
p236
F0.7
tp237
a(V2015-05-15 08:33:21+00:00
p238
F0.7
tp239
a(V2015-05-16 08:38:31+00:00
p240
F0.7
tp241
a(V2015-05-17 08:41:32+00:00
p242
F0.7
tp243
a(V2015-05-18 08:45:37+00:00
p244
F0.7
tp245
a(V2015-05-19 08:50:16+00:00
p246
F0.7
tp247
a(V2015-05-20 08:55:25+00:00
p248
F0.7
tp249
a(V2015-05-21 08:59:39+00:00
p250
F0.7
tp251
a(V2015-05-22 09:04:51+00:00
p252
F0.7
tp253
a(V2015-05-23 09:08:26+00:00
p254
F0.7
tp255
a(V2015-05-24 09:12:26+00:00
p256
F0.7
tp257
a(V2015-05-25 09:13:03+00:00
p258
F0.7
tp259
a(V2015-05-26 09:17:06+00:00
p260
F0.7
tp261
a(V2015-05-27 09:19:35+00:00
p262
F0.7
tp263
a(V2015-05-28 09:23:54+00:00
p264
F0.7
tp265
a(V2015-05-29 09:32:02+00:00
p266
F0.7
tp267
a(V2015-05-30 09:36:05+00:00
p268
F0.7
tp269
a(V2015-05-31 09:39:17+00:00
p270
F0.7
tp271
a(V2015-06-01 09:41:45+00:00
p272
F0.7
tp273
a(V2015-06-02 09:45:27+00:00
p274
F0.7
tp275
a(V2015-06-03 09:49:37+00:00
p276
F0.7
tp277
a(V2015-06-04 09:50:30+00:00
p278
F0.7
tp279
a(V2015-06-05 09:58:01+00:00
p280
F0.7
tp281
a(V2015-06-06 10:00:44+00:00
p282
F0.7
tp283
a(V2015-06-07 10:01:37+00:00
p284
F0.7
tp285
a(V2015-06-08 10:02:55+00:00
p286
F0.7
tp287
a(V2015-06-09 10:10:22+00:00
p288
F0.7
tp289
a(V2015-06-12 00:20:22+00:00
p290
F0.01
tp291
a(V2015-06-12 00:38:08+00:00
p292
F0.033
tp293
a(V2015-06-12 01:14:09+00:00
p294
F0.01
tp295
a(V2015-06-12 01:22:59+00:00
p296
F0.033
tp297
a(V2015-06-12 01:49:07+00:00
p298
F0.01
tp299
a(V2015-06-12 02:14:42+00:00
p300
F0.033
tp301
a(V2015-06-12 02:21:14+00:00
p302
F0.01
tp303
a(V2015-06-12 02:33:18+00:00
p304
F0.033
tp305
a(V2015-06-12 02:56:07+00:00
p306
F0.01
tp307
a(V2015-06-12 03:04:45+00:00
p308
F0.033
tp309
a(V2015-06-12 03:39:19+00:00
p310
F0.01
tp311
a(V2015-06-12 04:03:49+00:00
p312
F0.033
tp313
a(V2015-06-12 04:12:01+00:00
p314
F0.01
tp315
a(V2015-06-12 04:28:45+00:00
p316
F0.033
tp317
a(V2015-06-12 04:37:03+00:00
p318
F0.01
tp319
a(V2015-06-12 04:45:11+00:00
p320
F0.033
tp321
a(V2015-06-12 04:52:58+00:00
p322
F0.01
tp323
a(V2015-06-12 05:25:20+00:00
p324
F0.033
tp325
a(V2015-06-12 05:41:54+00:00
p326
F0.01
tp327
a(V2015-06-12 05:50:10+00:00
p328
F0.033
tp329
a(V2015-06-12 06:30:32+00:00
p330
F0.01
tp331
a(V2015-06-12 06:38:25+00:00
p332
F0.033
tp333
a(V2015-06-12 06:54:19+00:00
p334
F0.01
tp335
a(V2015-06-12 07:02:19+00:00
p336
F0.033
tp337
a(V2015-06-12 07:33:51+00:00
p338
F0.01
tp339
a(V2015-06-12 07:49:31+00:00
p340
F0.033
tp341
a(V2015-06-12 09:09:20+00:00
p342
F0.01
tp343
a(V2015-06-12 09:25:07+00:00
p344
F0.033
tp345
a(V2015-06-12 09:55:53+00:00
p346
F0.01
tp347
a(V2015-06-12 10:03:47+00:00
p348
F0.033
tp349
a(V2015-06-12 10:19:56+00:00
p350
F0.01
tp351
a(V2015-06-12 10:36:01+00:00
p352
F0.033
tp353
a(V2015-06-12 10:44:14+00:00
p354
F0.01
tp355
a(V2015-06-12 10:52:18+00:00
p356
F0.033
tp357
a(V2015-06-12 11:56:20+00:00
p358
F0.01
tp359
a(V2015-06-12 12:04:24+00:00
p360
F0.033
tp361
a(V2015-06-12 12:12:21+00:00
p362
F0.01
tp363
a(V2015-06-12 12:50:57+00:00
p364
F0.033
tp365
a(V2015-06-12 12:58:46+00:00
p366
F0.01
tp367
a(V2015-06-12 13:15:08+00:00
p368
F0.033
tp369
a(V2015-06-12 13:39:41+00:00
p370
F0.01
tp371
a(V2015-06-12 13:56:15+00:00
p372
F0.033
tp373
a(V2015-06-12 14:21:14+00:00
p374
F0.01
tp375
a(V2015-06-12 14:37:46+00:00
p376
F0.033
tp377
a(V2015-06-12 14:55:06+00:00
p378
F0.01
tp379
a(V2015-06-12 15:03:48+00:00
p380
F0.033
tp381
a(V2015-06-12 15:37:04+00:00
p382
F0.01
tp383
a(V2015-06-12 16:01:09+00:00
p384
F0.033
tp385
a(V2015-06-12 16:42:24+00:00
p386
F0.01
tp387
a(V2015-06-12 16:50:51+00:00
p388
F0.033
tp389
a(V2015-06-12 17:14:46+00:00
p390
F0.01
tp391
a(V2015-06-12 17:31:07+00:00
p392
F0.033
tp393
a(V2015-06-12 17:47:21+00:00
p394
F0.01
tp395
a(V2015-06-12 17:55:46+00:00
p396
F0.033
tp397
a(V2015-06-12 18:12:12+00:00
p398
F0.01
tp399
a(V2015-06-12 18:20:15+00:00
p400
F0.033
tp401
a(V2015-06-12 18:37:16+00:00
p402
F0.01
tp403
a(V2015-06-12 18:45:56+00:00
p404
F0.033
tp405
a(V2015-06-12 20:08:05+00:00
p406
F0.01
tp407
a(V2015-06-12 20:32:26+00:00
p408
F0.033
tp409
a(V2015-06-12 20:40:28+00:00
p410
F0.01
tp411
a(V2015-06-12 21:04:44+00:00
p412
F0.033
tp413
a(V2015-06-12 21:12:40+00:00
p414
F0.01
tp415
a(V2015-06-12 21:21:00+00:00
p416
F0.033
tp417
a(V2015-06-12 21:29:39+00:00
p418
F0.01
tp419
a(V2015-06-12 22:03:09+00:00
p420
F0.033
tp421
a(V2015-06-12 22:28:22+00:00
p422
F0.01
tp423
a(V2015-06-12 23:01:27+00:00
p424
F0.033
tp425
a(V2015-06-12 23:09:37+00:00
p426
F0.01
tp427
a(V2015-06-12 23:25:33+00:00
p428
F0.033
tp429
a(V2015-06-12 23:34:09+00:00
p430
F0.01
tp431
a(V2015-06-12 23:50:23+00:00
p432
F0.033
tp433
a(V2015-06-12 23:58:04+00:00
p434
F0.01
tp435
a(V2015-06-13 00:32:54+00:00
p436
F0.033
tp437
a(V2015-06-13 01:25:05+00:00
p438
F0.01
tp439
a(V2015-06-13 01:57:41+00:00
p440
F0.033
tp441
a(V2015-06-13 02:13:30+00:00
p442
F0.01
tp443
a(V2015-06-13 02:21:18+00:00
p444
F0.033
tp445
a(V2015-06-13 02:29:08+00:00
p446
F0.01
tp447
a(V2015-06-13 02:36:50+00:00
p448
F0.033
tp449
a(V2015-06-13 02:52:37+00:00
p450
F0.01
tp451
a(V2015-06-13 03:01:09+00:00
p452
F0.033
tp453
a(V2015-06-13 03:17:54+00:00
p454
F0.01
tp455
a(V2015-06-13 03:26:08+00:00
p456
F0.033
tp457
a(V2015-06-13 03:33:49+00:00
p458
F0.01
tp459
a(V2015-06-13 03:49:13+00:00
p460
F0.033
tp461
a(V2015-06-13 03:56:55+00:00
p462
F0.01
tp463
a(V2015-06-13 04:19:54+00:00
p464
F0.033
tp465
a(V2015-06-13 04:35:40+00:00
p466
F0.01
tp467
a(V2015-06-13 04:43:38+00:00
p468
F0.033
tp469
a(V2015-06-13 04:59:23+00:00
p470
F0.01
tp471
a(V2015-06-13 05:54:44+00:00
p472
F0.033
tp473
a(V2015-06-13 06:33:59+00:00
p474
F0.01
tp475
a(V2015-06-13 06:57:43+00:00
p476
F0.033
tp477
a(V2015-06-13 07:05:43+00:00
p478
F0.01
tp479
a(V2015-06-13 07:21:33+00:00
p480
F0.033
tp481
a(V2015-06-13 07:29:35+00:00
p482
F0.01
tp483
a(V2015-06-13 07:37:23+00:00
p484
F0.033
tp485
a(V2015-06-13 07:45:19+00:00
p486
F0.01
tp487
a(V2015-06-13 08:01:32+00:00
p488
F0.033
tp489
a(V2015-06-13 08:25:20+00:00
p490
F0.01
tp491
a(V2015-06-13 08:49:04+00:00
p492
F0.033
tp493
a(V2015-06-13 08:56:51+00:00
p494
F0.01
tp495
a(V2015-06-13 09:05:04+00:00
p496
F0.033
tp497
a(V2015-06-13 10:00:11+00:00
p498
F0.01
tp499
a(V2015-06-13 10:07:53+00:00
p500
F0.033
tp501
a(V2015-06-13 10:30:52+00:00
p502
F0.01
tp503
a(V2015-06-13 10:54:27+00:00
p504
F0.033
tp505
a(V2015-06-13 11:02:08+00:00
p506
F0.01
tp507
a(V2015-06-13 11:10:04+00:00
p508
F0.033
tp509
a(V2015-06-13 11:55:34+00:00
p510
F0.01
tp511
a(V2015-06-13 12:03:30+00:00
p512
F0.033
tp513
a(V2015-06-13 12:18:58+00:00
p514
F0.01
tp515
a(V2015-06-13 12:42:24+00:00
p516
F0.033
tp517
a(V2015-06-13 13:28:57+00:00
p518
F0.01
tp519
a(V2015-06-13 13:44:41+00:00
p520
F0.033
tp521
a(V2015-06-13 13:52:20+00:00
p522
F0.01
tp523
a(V2015-06-13 14:07:26+00:00
p524
F0.033
tp525
a(V2015-06-13 14:15:14+00:00
p526
F0.01
tp527
a(V2015-06-13 14:30:57+00:00
p528
F0.033
tp529
a(V2015-06-13 15:09:58+00:00
p530
F0.01
tp531
a(V2015-06-13 15:25:58+00:00
p532
F0.033
tp533
a(V2015-06-13 15:57:35+00:00
p534
F0.01
tp535
a(V2015-06-13 16:13:20+00:00
p536
F0.033
tp537
a(V2015-06-13 16:36:40+00:00
p538
F0.01
tp539
a(V2015-06-13 17:00:29+00:00
p540
F0.033
tp541
a(V2015-06-13 17:48:31+00:00
p542
F0.01
tp543
a(V2015-06-13 18:04:09+00:00
p544
F0.033
tp545
a(V2015-06-13 18:11:59+00:00
p546
F0.01
tp547
a(V2015-06-13 18:27:28+00:00
p548
F0.033
tp549
a(V2015-06-13 18:35:16+00:00
p550
F0.01
tp551
a(V2015-06-13 18:58:11+00:00
p552
F0.033
tp553
a(V2015-06-13 19:06:03+00:00
p554
F0.01
tp555
a(V2015-06-13 19:14:07+00:00
p556
F0.033
tp557
a(V2015-06-13 19:21:49+00:00
p558
F0.01
tp559
a(V2015-06-13 19:52:17+00:00
p560
F0.033
tp561
a(V2015-06-13 20:23:51+00:00
p562
F0.01
tp563
a(V2015-06-13 20:31:46+00:00
p564
F0.033
tp565
a(V2015-06-13 20:46:56+00:00
p566
F0.01
tp567
a(V2015-06-13 20:54:45+00:00
p568
F0.033
tp569
a(V2015-06-13 21:02:32+00:00
p570
F0.01
tp571
a(V2015-06-13 21:33:24+00:00
p572
F0.033
tp573
a(V2015-06-13 21:41:17+00:00
p574
F0.01
tp575
a(V2015-06-13 21:49:09+00:00
p576
F0.033
tp577
a(V2015-06-13 22:20:44+00:00
p578
F0.01
tp579
a(V2015-06-13 22:28:18+00:00
p580
F0.033
tp581
a(V2015-06-13 22:43:35+00:00
p582
F0.01
tp583
a(V2015-06-13 22:51:18+00:00
p584
F0.033
tp585
a(V2015-06-13 22:59:04+00:00
p586
F0.01
tp587
a(V2015-06-13 23:06:59+00:00
p588
F0.033
tp589
a(V2015-06-13 23:14:41+00:00
p590
F0.01
tp591
a(V2015-06-13 23:22:11+00:00
p592
F0.033
tp593
a(V2015-06-13 23:29:33+00:00
p594
F0.01
tp595
a(V2015-06-13 23:44:33+00:00
p596
F0.033
tp597
a(V2015-06-14 00:00:05+00:00
p598
F0.01
tp599
a(V2015-06-14 00:08:13+00:00
p600
F0.033
tp601
a(V2015-06-14 00:16:47+00:00
p602
F0.01
tp603
a(V2015-06-14 00:41:13+00:00
p604
F0.033
tp605
a(V2015-06-14 02:25:41+00:00
p606
F0.01
tp607
a(V2015-06-14 02:34:19+00:00
p608
F0.033
tp609
a(V2015-06-14 02:57:26+00:00
p610
F0.01
tp611
a(V2015-06-14 03:13:17+00:00
p612
F0.033
tp613
a(V2015-06-14 03:20:41+00:00
p614
F0.01
tp615
a(V2015-06-14 03:28:21+00:00
p616
F0.033
tp617
a(V2015-06-14 03:43:29+00:00
p618
F0.01
tp619
a(V2015-06-14 03:58:25+00:00
p620
F0.033
tp621
a(V2015-06-14 04:21:13+00:00
p622
F0.01
tp623
a(V2015-06-14 05:37:20+00:00
p624
F0.033
tp625
a(V2015-06-14 05:59:55+00:00
p626
F0.01
tp627
a(V2015-06-14 06:07:16+00:00
p628
F0.033
tp629
a(V2015-06-14 06:37:23+00:00
p630
F0.01
tp631
a(V2015-06-14 06:44:53+00:00
p632
F0.033
tp633
a(V2015-06-14 07:06:32+00:00
p634
F0.01
tp635
a(V2015-06-14 07:14:12+00:00
p636
F0.033
tp637
a(V2015-06-14 07:21:35+00:00
p638
F0.01
tp639
a(V2015-06-14 07:36:47+00:00
p640
F0.033
tp641
a(V2015-06-14 07:51:21+00:00
p642
F0.01
tp643
a(V2015-06-14 08:14:28+00:00
p644
F0.033
tp645
a(V2015-06-14 08:37:06+00:00
p646
F0.01
tp647
a(V2015-06-14 08:44:33+00:00
p648
F0.033
tp649
a(V2015-06-14 08:51:59+00:00
p650
F0.01
tp651
a(V2015-06-14 09:07:00+00:00
p652
F0.033
tp653
a(V2015-06-14 09:37:43+00:00
p654
F0.01
tp655
a(V2015-06-14 09:45:02+00:00
p656
F0.033
tp657
a(V2015-06-14 09:59:44+00:00
p658
F0.01
tp659
a(V2015-06-14 10:15:10+00:00
p660
F0.033
tp661
a(V2015-06-14 10:29:55+00:00
p662
F0.01
tp663
a(V2015-06-14 10:44:36+00:00
p664
F0.033
tp665
a(V2015-06-14 11:30:17+00:00
p666
F0.01
tp667
a(V2015-06-14 11:45:33+00:00
p668
F0.033
tp669
a(V2015-06-14 12:16:21+00:00
p670
F0.01
tp671
a(V2015-06-14 12:38:46+00:00
p672
F0.033
tp673
a(V2015-06-14 12:46:21+00:00
p674
F0.01
tp675
a(V2015-06-14 13:01:46+00:00
p676
F0.033
tp677
a(V2015-06-14 13:17:31+00:00
p678
F0.01
tp679
a(V2015-06-14 13:39:40+00:00
p680
F0.033
tp681
a(V2015-06-14 14:02:25+00:00
p682
F0.01
tp683
a(V2015-06-14 14:10:07+00:00
p684
F0.033
tp685
a(V2015-06-14 14:17:53+00:00
p686
F0.01
tp687
a(V2015-06-14 14:25:25+00:00
p688
F0.033
tp689
a(V2015-06-14 14:33:07+00:00
p690
F0.01
tp691
a(V2015-06-14 15:03:49+00:00
p692
F0.033
tp693
a(V2015-06-14 15:42:21+00:00
p694
F0.01
tp695
a(V2015-06-14 15:49:59+00:00
p696
F0.033
tp697
a(V2015-06-14 17:06:22+00:00
p698
F0.01
tp699
a(V2015-06-14 17:44:09+00:00
p700
F0.033
tp701
a(V2015-06-14 18:14:20+00:00
p702
F0.01
tp703
a(V2015-06-14 18:44:48+00:00
p704
F0.033
tp705
a(V2015-06-14 19:24:04+00:00
p706
F0.01
tp707
a(V2015-06-14 19:31:35+00:00
p708
F0.033
tp709
a(V2015-06-14 19:39:06+00:00
p710
F0.01
tp711
a(V2015-06-14 19:46:49+00:00
p712
F0.033
tp713
a(V2015-06-14 19:54:37+00:00
p714
F0.01
tp715
a(V2015-06-14 20:02:16+00:00
p716
F0.033
tp717
a(V2015-06-14 20:39:58+00:00
p718
F0.01
tp719
a(V2015-06-14 20:55:18+00:00
p720
F0.033
tp721
a(V2015-06-14 21:10:46+00:00
p722
F0.01
tp723
a(V2015-06-14 21:26:08+00:00
p724
F0.033
tp725
a(V2015-06-14 22:04:17+00:00
p726
F0.01
tp727
a(V2015-06-14 22:19:06+00:00
p728
F0.033
tp729
a(V2015-06-14 22:42:34+00:00
p730
F0.01
tp731
a(V2015-06-14 22:50:14+00:00
p732
F0.033
tp733
a(V2015-06-14 23:05:29+00:00
p734
F0.01
tp735
a(V2015-06-14 23:20:39+00:00
p736
F0.033
tp737
a(V2015-06-14 23:35:58+00:00
p738
F0.01
tp739
a(V2015-06-14 23:43:42+00:00
p740
F0.033
tp741
a(V2015-06-15 01:12:14+00:00
p742
F0.01
tp743
a(V2015-06-15 01:19:58+00:00
p744
F0.033
tp745
a(V2015-06-15 01:35:51+00:00
p746
F0.01
tp747
a(V2015-06-15 01:43:30+00:00
p748
F0.033
tp749
a(V2015-06-15 01:59:04+00:00
p750
F0.01
tp751
a(V2015-06-15 02:14:22+00:00
p752
F0.033
tp753
a(V2015-06-15 02:38:04+00:00
p754
F0.01
tp755
a(V2015-06-15 02:54:00+00:00
p756
F0.033
tp757
a(V2015-06-15 03:18:40+00:00
p758
F0.01
tp759
a(V2015-06-15 03:26:44+00:00
p760
F0.033
tp761
a(V2015-06-15 03:42:19+00:00
p762
F0.01
tp763
a(V2015-06-15 03:49:52+00:00
p764
F0.033
tp765
a(V2015-06-15 04:28:40+00:00
p766
F0.01
tp767
a(V2015-06-15 04:51:26+00:00
p768
F0.033
tp769
a(V2015-06-15 05:06:43+00:00
p770
F0.01
tp771
a(V2015-06-15 06:09:59+00:00
p772
F0.033
tp773
a(V2015-06-15 06:17:54+00:00
p774
F0.01
tp775
a(V2015-06-15 06:55:44+00:00
p776
F0.033
tp777
a(V2015-06-15 07:26:31+00:00
p778
F0.01
tp779
a(V2015-06-15 07:34:05+00:00
p780
F0.033
tp781
a(V2015-06-15 07:56:19+00:00
p782
F0.01
tp783
a(V2015-06-15 08:33:51+00:00
p784
F0.033
tp785
a(V2015-06-15 09:03:23+00:00
p786
F0.01
tp787
a(V2015-06-15 09:42:07+00:00
p788
F0.033
tp789
a(V2015-06-15 09:49:50+00:00
p790
F0.01
tp791
a(V2015-06-15 10:12:48+00:00
p792
F0.033
tp793
a(V2015-06-15 10:59:18+00:00
p794
F0.01
tp795
a(V2015-06-15 11:30:42+00:00
p796
F0.033
tp797
a(V2015-06-15 11:45:55+00:00
p798
F0.01
tp799
a(V2015-06-15 12:01:37+00:00
p800
F0.033
tp801
a(V2015-06-15 12:48:55+00:00
p802
F0.01
tp803
a(V2015-06-15 12:56:27+00:00
p804
F0.033
tp805
a(V2015-06-15 13:26:56+00:00
p806
F0.01
tp807
a(V2015-06-15 13:34:38+00:00
p808
F0.033
tp809
a(V2015-06-15 14:06:12+00:00
p810
F0.01
tp811
a(V2015-06-15 14:14:06+00:00
p812
F0.033
tp813
a(V2015-06-15 14:22:15+00:00
p814
F0.01
tp815
a(V2015-06-15 14:38:04+00:00
p816
F0.033
tp817
a(V2015-06-15 15:10:29+00:00
p818
F0.01
tp819
a(V2015-06-15 15:50:58+00:00
p820
F0.033
tp821
a(V2015-06-15 15:59:07+00:00
p822
F0.01
tp823
a(V2015-06-15 16:07:26+00:00
p824
F0.033
tp825
a(V2015-06-15 16:40:47+00:00
p826
F0.01
tp827
a(V2015-06-15 17:13:02+00:00
p828
F0.033
tp829
a(V2015-06-15 17:29:35+00:00
p830
F0.01
tp831
a(V2015-06-15 17:37:58+00:00
p832
F0.033
tp833
a(V2015-06-15 17:46:10+00:00
p834
F0.01
tp835
a(V2015-06-15 18:28:07+00:00
p836
F0.033
tp837
a(V2015-06-15 18:36:42+00:00
p838
F0.01
tp839
a(V2015-06-15 18:44:58+00:00
p840
F0.033
tp841
a(V2015-06-15 18:53:24+00:00
p842
F0.01
tp843
a(V2015-06-15 19:10:23+00:00
p844
F0.033
tp845
a(V2015-06-15 20:48:11+00:00
p846
F0.01
tp847
a(V2015-06-15 20:56:58+00:00
p848
F0.033
tp849
a(V2015-06-15 21:40:22+00:00
p850
F0.01
tp851
a(V2015-06-15 21:57:01+00:00
p852
F0.033
tp853
a(V2015-06-15 22:05:43+00:00
p854
F0.01
tp855
a(V2015-06-15 22:31:07+00:00
p856
F0.033
tp857
a(V2015-06-15 22:39:36+00:00
p858
F0.01
tp859
a(V2015-06-15 22:56:49+00:00
p860
F0.033
tp861
a(V2015-06-15 23:21:52+00:00
p862
F0.01
tp863
a(V2015-06-16 00:03:10+00:00
p864
F0.033
tp865
a(V2015-06-16 00:26:04+00:00
p866
F0.01
tp867
a(V2015-06-16 00:43:03+00:00
p868
F0.033
tp869
a(V2015-06-16 00:51:10+00:00
p870
F0.01
tp871
a(V2015-06-16 01:04:57+00:00
p872
F0.033
tp873
a(V2015-06-16 01:34:46+00:00
p874
F0.01
tp875
a(V2015-06-16 02:14:46+00:00
p876
F0.033
tp877
a(V2015-06-16 02:23:41+00:00
p878
F0.01
tp879
a(V2015-06-16 02:39:51+00:00
p880
F0.033
tp881
a(V2015-06-16 02:48:23+00:00
p882
F0.01
tp883
a(V2015-06-16 03:04:57+00:00
p884
F0.033
tp885
a(V2015-06-16 04:08:53+00:00
p886
F0.01
tp887
a(V2015-06-16 04:16:53+00:00
p888
F0.033
tp889
a(V2015-06-16 04:40:14+00:00
p890
F0.01
tp891
a(V2015-06-16 04:54:53+00:00
p892
F0.033
tp893
a(V2015-06-16 05:10:21+00:00
p894
F0.01
tp895
a(V2015-06-16 05:25:51+00:00
p896
F0.033
tp897
a(V2015-06-16 05:56:46+00:00
p898
F0.01
tp899
a(V2015-06-16 06:25:14+00:00
p900
F0.033
tp901
a(V2015-06-16 06:32:49+00:00
p902
F0.01
tp903
a(V2015-06-16 06:38:11+00:00
p904
F0.033
tp905
a(V2015-06-16 06:45:50+00:00
p906
F0.01
tp907
a(V2015-06-16 06:58:02+00:00
p908
F0.033
tp909
a(V2015-06-16 07:57:45+00:00
p910
F0.01
tp911
a(V2015-06-16 08:13:38+00:00
p912
F0.033
tp913
a(V2015-06-16 08:21:37+00:00
p914
F0.01
tp915
a(V2015-06-16 08:37:24+00:00
p916
F0.033
tp917
a(V2015-06-16 08:52:51+00:00
p918
F0.01
tp919
a(V2015-06-16 09:09:03+00:00
p920
F0.033
tp921
a(V2015-06-16 09:49:25+00:00
p922
F0.01
tp923
a(V2015-06-16 10:13:01+00:00
p924
F0.033
tp925
a(V2015-06-16 10:28:11+00:00
p926
F0.01
tp927
a(V2015-06-16 10:44:10+00:00
p928
F0.033
tp929
a(V2015-06-16 13:07:19+00:00
p930
F0.01
tp931
a(V2015-06-16 13:15:20+00:00
p932
F0.033
tp933
a(V2015-06-16 13:46:58+00:00
p934
F0.01
tp935
a(V2015-06-16 13:55:02+00:00
p936
F0.033
tp937
a(V2015-06-16 14:19:13+00:00
p938
F0.01
tp939
a(V2015-06-16 14:27:23+00:00
p940
F0.033
tp941
a(V2015-06-16 14:35:29+00:00
p942
F0.01
tp943
a(V2015-06-16 14:51:56+00:00
p944
F0.033
tp945
a(V2015-06-16 15:24:54+00:00
p946
F0.01
tp947
a(V2015-06-16 15:50:08+00:00
p948
F0.033
tp949
a(V2015-06-16 16:15:18+00:00
p950
F0.01
tp951
a(V2015-06-16 17:24:58+00:00
p952
F0.033
tp953
a(V2015-06-16 18:50:42+00:00
p954
F0.01
tp955
a(V2015-06-16 19:07:53+00:00
p956
F0.033
tp957
a(V2015-06-16 19:16:25+00:00
p958
F0.01
tp959
a(V2015-06-16 19:33:56+00:00
p960
F0.033
tp961
a(V2015-06-16 19:42:47+00:00
p962
F0.01
tp963
a(V2015-06-16 19:51:38+00:00
p964
F0.033
tp965
a(V2015-06-16 20:00:24+00:00
p966
F0.01
tp967
a(V2015-06-16 20:09:18+00:00
p968
F0.033
tp969
a(V2015-06-16 20:44:17+00:00
p970
F0.01
tp971
a(V2015-06-16 21:01:14+00:00
p972
F0.033
tp973
a(V2015-06-16 21:37:09+00:00
p974
F0.01
tp975
a(V2015-06-16 21:46:03+00:00
p976
F0.033
tp977
a(V2015-06-16 22:44:42+00:00
p978
F0.01
tp979
a(V2015-06-16 23:09:51+00:00
p980
F0.033
tp981
a(V2015-06-16 23:51:09+00:00
p982
F0.01
tp983
a(V2015-06-17 00:50:50+00:00
p984
F0.033
tp985
a(V2015-06-17 01:07:33+00:00
p986
F0.01
tp987
a(V2015-06-17 01:32:55+00:00
p988
F0.033
tp989
a(V2015-06-17 02:21:37+00:00
p990
F0.01
tp991
a(V2015-06-17 02:37:51+00:00
p992
F0.033
tp993
a(V2015-06-17 02:46:54+00:00
p994
F0.01
tp995
a(V2015-06-17 02:55:26+00:00
p996
F0.033
tp997
a(V2015-06-17 03:04:00+00:00
p998
F0.01
tp999
a(V2015-06-17 03:20:58+00:00
p1000
F0.033
tp1001
a(V2015-06-17 03:45:31+00:00
p1002
F0.01
tp1003
a(V2015-06-17 04:02:24+00:00
p1004
F0.033
tp1005
a(V2015-06-17 04:10:31+00:00
p1006
F0.01
tp1007
a(V2015-06-17 04:35:01+00:00
p1008
F0.033
tp1009
a(V2015-06-17 04:51:22+00:00
p1010
F0.01
tp1011
a(V2015-06-17 05:07:34+00:00
p1012
F0.033
tp1013
a(V2015-06-17 05:15:31+00:00
p1014
F0.01
tp1015
a(V2015-06-17 05:39:17+00:00
p1016
F0.033
tp1017
a(V2015-06-17 05:54:38+00:00
p1018
F0.01
tp1019
a(V2015-06-17 06:02:28+00:00
p1020
F0.033
tp1021
a(V2015-06-17 06:33:33+00:00
p1022
F0.01
tp1023
a(V2015-06-17 06:49:19+00:00
p1024
F0.033
tp1025
a(V2015-06-17 07:27:57+00:00
p1026
F0.01
tp1027
a(V2015-06-17 07:43:42+00:00
p1028
F0.033
tp1029
a(V2015-06-17 08:30:36+00:00
p1030
F0.01
tp1031
a(V2015-06-17 08:38:29+00:00
p1032
F0.033
tp1033
a(V2015-06-17 08:54:04+00:00
p1034
F0.01
tp1035
a(V2015-06-17 09:01:46+00:00
p1036
F0.033
tp1037
a(V2015-06-17 09:09:44+00:00
p1038
F0.01
tp1039
a(V2015-06-17 09:25:21+00:00
p1040
F0.033
tp1041
a(V2015-06-17 09:49:00+00:00
p1042
F0.01
tp1043
a(V2015-06-17 09:56:40+00:00
p1044
F0.033
tp1045
a(V2015-06-17 10:04:37+00:00
p1046
F0.01
tp1047
a(V2015-06-17 10:20:21+00:00
p1048
F0.033
tp1049
a(V2015-06-17 10:28:15+00:00
p1050
F0.01
tp1051
a(V2015-06-17 10:44:58+00:00
p1052
F0.033
tp1053
a(V2015-06-17 11:00:23+00:00
p1054
F0.01
tp1055
a(V2015-06-17 11:08:32+00:00
p1056
F0.033
tp1057
a(V2015-06-17 11:47:57+00:00
p1058
F0.01
tp1059
a(V2015-06-17 11:55:47+00:00
p1060
F0.033
tp1061
a(V2015-06-17 12:03:37+00:00
p1062
F0.01
tp1063
a(V2015-06-17 13:07:23+00:00
p1064
F0.033
tp1065
a(V2015-06-17 13:23:17+00:00
p1066
F0.01
tp1067
a(V2015-06-17 13:31:30+00:00
p1068
F0.033
tp1069
a(V2015-06-17 14:04:46+00:00
p1070
F0.01
tp1071
a(V2015-06-17 14:37:24+00:00
p1072
F0.033
tp1073
a(V2015-06-17 14:53:36+00:00
p1074
F0.01
tp1075
a(V2015-06-17 15:02:00+00:00
p1076
F0.033
tp1077
a(V2015-06-17 15:28:08+00:00
p1078
F0.01
tp1079
a(V2015-06-17 15:36:41+00:00
p1080
F0.033
tp1081
a(V2015-06-17 16:02:35+00:00
p1082
F0.01
tp1083
a(V2015-06-17 16:19:50+00:00
p1084
F0.033
tp1085
a(V2015-06-17 17:02:41+00:00
p1086
F0.01
tp1087
a(V2015-06-17 17:19:49+00:00
p1088
F0.033
tp1089
a(V2015-06-17 17:28:25+00:00
p1090
F0.01
tp1091
a(V2015-06-17 17:37:01+00:00
p1092
F0.033
tp1093
a(V2015-06-17 17:45:39+00:00
p1094
F0.01
tp1095
a(V2015-06-17 18:02:42+00:00
p1096
F0.033
tp1097
a(V2015-06-17 18:10:56+00:00
p1098
F0.01
tp1099
a(V2015-06-17 18:19:25+00:00
p1100
F0.033
tp1101
a(V2015-06-17 18:36:57+00:00
p1102
F0.01
tp1103
a(V2015-06-17 18:45:50+00:00
p1104
F0.033
tp1105
a(V2015-06-17 19:20:45+00:00
p1106
F0.01
tp1107
a(V2015-06-17 19:46:11+00:00
p1108
F0.033
tp1109
a(V2015-06-17 20:37:32+00:00
p1110
F0.01
tp1111
a(V2015-06-17 20:45:54+00:00
p1112
F0.033
tp1113
a(V2015-06-17 20:54:18+00:00
p1114
F0.01
tp1115
a(V2015-06-17 21:12:28+00:00
p1116
F0.033
tp1117
a(V2015-06-17 21:21:09+00:00
p1118
F0.01
tp1119
a(V2015-06-17 21:38:17+00:00
p1120
F0.033
tp1121
a(V2015-06-17 22:27:57+00:00
p1122
F0.01
tp1123
a(V2015-06-17 22:52:36+00:00
p1124
F0.033
tp1125
a(V2015-06-17 23:09:04+00:00
p1126
F0.01
tp1127
a(V2015-06-17 23:24:32+00:00
p1128
F0.033
tp1129
a(V2015-06-17 23:32:10+00:00
p1130
F0.01
tp1131
a(V2015-06-17 23:40:00+00:00
p1132
F0.033
tp1133
a(V2015-06-18 00:05:05+00:00
p1134
F0.01
tp1135
a(V2015-06-18 00:15:01+00:00
p1136
F0.033
tp1137
a(V2015-06-18 00:23:27+00:00
p1138
F0.01
tp1139
a(V2015-06-18 00:32:01+00:00
p1140
F0.033
tp1141
a(V2015-06-18 00:48:27+00:00
p1142
F0.01
tp1143
a(V2015-06-18 00:56:51+00:00
p1144
F0.033
tp1145
a(V2015-06-18 01:05:25+00:00
p1146
F0.01
tp1147
a(V2015-06-18 01:13:52+00:00
p1148
F0.033
tp1149
a(V2015-06-18 01:22:09+00:00
p1150
F0.01
tp1151
a(V2015-06-18 01:35:48+00:00
p1152
F0.033
tp1153
a(V2015-06-18 01:51:59+00:00
p1154
F0.01
tp1155
a(V2015-06-18 02:07:34+00:00
p1156
F0.033
tp1157
a(V2015-06-18 02:15:37+00:00
p1158
F0.01
tp1159
a(V2015-06-18 02:31:49+00:00
p1160
F0.033
tp1161
a(V2015-06-18 02:55:37+00:00
p1162
F0.01
tp1163
a(V2015-06-18 03:03:34+00:00
p1164
F0.033
tp1165
a(V2015-06-18 03:17:18+00:00
p1166
F0.01
tp1167
a(V2015-06-18 03:31:11+00:00
p1168
F0.033
tp1169
a(V2015-06-18 04:29:10+00:00
p1170
F0.01
tp1171
a(V2015-06-18 04:37:08+00:00
p1172
F0.033
tp1173
a(V2015-06-18 04:53:00+00:00
p1174
F0.01
tp1175
a(V2015-06-18 05:08:49+00:00
p1176
F0.033
tp1177
a(V2015-06-18 05:16:54+00:00
p1178
F0.01
tp1179
a(V2015-06-18 05:33:03+00:00
p1180
F0.033
tp1181
a(V2015-06-18 05:40:45+00:00
p1182
F0.01
tp1183
a(V2015-06-18 06:19:31+00:00
p1184
F0.033
tp1185
a(V2015-06-18 06:27:34+00:00
p1186
F0.01
tp1187
a(V2015-06-18 07:15:32+00:00
p1188
F0.033
tp1189
a(V2015-06-18 07:31:35+00:00
p1190
F0.01
tp1191
a(V2015-06-18 07:40:05+00:00
p1192
F0.033
tp1193
a(V2015-06-18 08:19:11+00:00
p1194
F0.01
tp1195
a(V2015-06-18 08:34:24+00:00
p1196
F0.033
tp1197
a(V2015-06-18 08:56:13+00:00
p1198
F0.01
tp1199
a(V2015-06-18 09:03:54+00:00
p1200
F0.033
tp1201
a(V2015-06-18 09:12:04+00:00
p1202
F0.01
tp1203
a(V2015-06-18 09:19:53+00:00
p1204
F0.033
tp1205
a(V2015-06-18 10:35:04+00:00
p1206
F0.01
tp1207
a(V2015-06-18 10:49:55+00:00
p1208
F0.033
tp1209
a(V2015-06-18 10:57:19+00:00
p1210
F0.01
tp1211
a(V2015-06-18 11:12:59+00:00
p1212
F0.033
tp1213
a(V2015-06-18 11:28:57+00:00
p1214
F0.01
tp1215
a(V2015-06-18 11:44:09+00:00
p1216
F0.033
tp1217
a(V2015-06-18 11:51:43+00:00
p1218
F0.01
tp1219
a(V2015-06-18 12:07:20+00:00
p1220
F0.033
tp1221
a(V2015-06-18 12:53:33+00:00
p1222
F0.01
tp1223
a(V2015-06-18 13:24:18+00:00
p1224
F0.033
tp1225
a(V2015-06-18 14:25:31+00:00
p1226
F0.01
tp1227
a(V2015-06-18 14:33:17+00:00
p1228
F0.033
tp1229
a(V2015-06-18 14:41:03+00:00
p1230
F0.01
tp1231
a(V2015-06-18 14:56:42+00:00
p1232
F0.033
tp1233
a(V2015-06-18 15:19:41+00:00
p1234
F0.01
tp1235
a(V2015-06-18 15:27:30+00:00
p1236
F0.033
tp1237
a(V2015-06-18 17:17:26+00:00
p1238
F0.01
tp1239
a(V2015-06-18 17:25:10+00:00
p1240
F0.033
tp1241
a(V2015-06-18 17:40:33+00:00
p1242
F0.01
tp1243
a(V2015-06-18 17:56:12+00:00
p1244
F0.033
tp1245
a(V2015-06-18 18:04:06+00:00
p1246
F0.01
tp1247
a(V2015-06-18 18:27:53+00:00
p1248
F0.033
tp1249
a(V2015-06-18 18:44:22+00:00
p1250
F0.01
tp1251
a(V2015-06-18 18:52:28+00:00
p1252
F0.033
tp1253
a(V2015-06-18 19:48:44+00:00
p1254
F0.01
tp1255
a(V2015-06-18 19:56:19+00:00
p1256
F0.033
tp1257
a(V2015-06-18 20:46:08+00:00
p1258
F0.01
tp1259
a(V2015-06-18 21:10:00+00:00
p1260
F0.033
tp1261
a(V2015-06-18 21:25:40+00:00
p1262
F0.01
tp1263
a(V2015-06-18 21:34:08+00:00
p1264
F0.033
tp1265
a(V2015-06-18 21:42:44+00:00
p1266
F0.01
tp1267
a(V2015-06-18 21:58:15+00:00
p1268
F0.033
tp1269
a(V2015-06-18 22:31:54+00:00
p1270
F0.01
tp1271
a(V2015-06-18 22:39:32+00:00
p1272
F0.033
tp1273
a(V2015-06-18 22:54:58+00:00
p1274
F0.01
tp1275
a(V2015-06-18 23:10:49+00:00
p1276
F0.033
tp1277
a(V2015-06-19 00:23:57+00:00
p1278
F0.01
tp1279
a(V2015-06-19 00:32:08+00:00
p1280
F0.033
tp1281
a(V2015-06-19 00:47:59+00:00
p1282
F0.01
tp1283
a(V2015-06-19 01:19:54+00:00
p1284
F0.033
tp1285
a(V2015-06-19 01:27:51+00:00
p1286
F0.01
tp1287
a(V2015-06-19 02:06:52+00:00
p1288
F0.033
tp1289
a(V2015-06-19 03:52:29+00:00
p1290
F0.01
tp1291
a(V2015-06-19 04:23:19+00:00
p1292
F0.033
tp1293
a(V2015-06-19 04:37:59+00:00
p1294
F0.01
tp1295
a(V2015-06-19 04:45:41+00:00
p1296
F0.033
tp1297
a(V2015-06-19 04:53:10+00:00
p1298
F0.01
tp1299
a(V2015-06-19 05:08:38+00:00
p1300
F0.033
tp1301
a(V2015-06-19 05:16:08+00:00
p1302
F0.01
tp1303
a(V2015-06-19 05:39:39+00:00
p1304
F0.033
tp1305
a(V2015-06-19 05:47:31+00:00
p1306
F0.01
tp1307
a(V2015-06-19 06:10:56+00:00
p1308
F0.033
tp1309
a(V2015-06-19 06:26:09+00:00
p1310
F0.01
tp1311
a(V2015-06-19 06:49:01+00:00
p1312
F0.033
tp1313
a(V2015-06-19 06:56:42+00:00
p1314
F0.01
tp1315
a(V2015-06-19 07:04:33+00:00
p1316
F0.033
tp1317
a(V2015-06-19 07:12:19+00:00
p1318
F0.01
tp1319
a(V2015-06-19 07:44:16+00:00
p1320
F0.033
tp1321
a(V2015-06-19 07:52:01+00:00
p1322
F0.01
tp1323
a(V2015-06-19 08:07:35+00:00
p1324
F0.033
tp1325
a(V2015-06-19 08:30:58+00:00
p1326
F0.01
tp1327
a(V2015-06-19 08:38:48+00:00
p1328
F0.033
tp1329
a(V2015-06-19 09:11:04+00:00
p1330
F0.01
tp1331
a(V2015-06-19 09:27:12+00:00
p1332
F0.033
tp1333
a(V2015-06-19 09:52:06+00:00
p1334
F0.01
tp1335
a(V2015-06-19 10:08:17+00:00
p1336
F0.033
tp1337
a(V2015-06-19 10:32:01+00:00
p1338
F0.01
tp1339
a(V2015-06-19 10:55:41+00:00
p1340
F0.033
tp1341
a(V2015-06-19 11:11:37+00:00
p1342
F0.01
tp1343
a(V2015-06-19 11:19:22+00:00
p1344
F0.033
tp1345
a(V2015-06-19 11:27:24+00:00
p1346
F0.01
tp1347
a(V2015-06-19 11:51:04+00:00
p1348
F0.033
tp1349
a(V2015-06-19 12:30:35+00:00
p1350
F0.01
tp1351
a(V2015-06-19 12:38:33+00:00
p1352
F0.033
tp1353
a(V2015-06-19 12:54:23+00:00
p1354
F0.01
tp1355
a(V2015-06-19 13:10:42+00:00
p1356
F0.033
tp1357
a(V2015-06-19 13:35:33+00:00
p1358
F0.01
tp1359
a(V2015-06-19 13:43:51+00:00
p1360
F0.033
tp1361
a(V2015-06-19 13:52:03+00:00
p1362
F0.01
tp1363
a(V2015-06-19 14:08:30+00:00
p1364
F0.033
tp1365
a(V2015-06-19 14:17:00+00:00
p1366
F0.01
tp1367
a(V2015-06-19 14:25:09+00:00
p1368
F0.033
tp1369
a(V2015-06-19 14:33:00+00:00
p1370
F0.01
tp1371
a(V2015-06-19 14:40:31+00:00
p1372
F0.033
tp1373
a(V2015-06-19 14:48:11+00:00
p1374
F0.01
tp1375
a(V2015-06-19 15:03:37+00:00
p1376
F0.033
tp1377
a(V2015-06-19 15:11:34+00:00
p1378
F0.01
tp1379
a(V2015-06-19 15:27:49+00:00
p1380
F0.033
tp1381
a(V2015-06-19 15:35:57+00:00
p1382
F0.01
tp1383
a(V2015-06-19 16:09:38+00:00
p1384
F0.033
tp1385
a(V2015-06-19 16:18:03+00:00
p1386
F0.01
tp1387
a(V2015-06-19 16:26:28+00:00
p1388
F0.033
tp1389
a(V2015-06-19 16:59:07+00:00
p1390
F0.01
tp1391
a(V2015-06-19 17:07:17+00:00
p1392
F0.033
tp1393
a(V2015-06-19 17:23:12+00:00
p1394
F0.01
tp1395
a(V2015-06-19 17:55:45+00:00
p1396
F0.033
tp1397
a(V2015-06-19 18:28:03+00:00
p1398
F0.01
tp1399
a(V2015-06-19 18:43:49+00:00
p1400
F0.033
tp1401
a(V2015-06-19 19:07:39+00:00
p1402
F0.01
tp1403
a(V2015-06-19 19:39:41+00:00
p1404
F0.033
tp1405
a(V2015-06-19 19:47:43+00:00
p1406
F0.01
tp1407
a(V2015-06-19 19:56:01+00:00
p1408
F0.033
tp1409
a(V2015-06-19 20:12:30+00:00
p1410
F0.01
tp1411
a(V2015-06-19 20:20:35+00:00
p1412
F0.033
tp1413
a(V2015-06-19 20:45:27+00:00
p1414
F0.01
tp1415
a(V2015-06-19 21:02:22+00:00
p1416
F0.033
tp1417
a(V2015-06-19 22:38:52+00:00
p1418
F0.01
tp1419
a(V2015-06-19 22:46:44+00:00
p1420
F0.033
tp1421
a(V2015-06-19 23:42:15+00:00
p1422
F0.01
tp1423
a(V2015-06-19 23:50:16+00:00
p1424
F0.033
tp1425
a(V2015-06-20 00:05:45+00:00
p1426
F0.01
tp1427
a(V2015-06-20 00:14:32+00:00
p1428
F0.033
tp1429
a(V2015-06-20 00:56:13+00:00
p1430
F0.01
tp1431
a(V2015-06-20 01:19:43+00:00
p1432
F0.033
tp1433
a(V2015-06-20 01:59:16+00:00
p1434
F0.01
tp1435
a(V2015-06-20 02:07:10+00:00
p1436
F0.033
tp1437
a(V2015-06-20 02:23:17+00:00
p1438
F0.01
tp1439
a(V2015-06-20 02:31:52+00:00
p1440
F0.033
tp1441
a(V2015-06-20 03:28:50+00:00
p1442
F0.01
tp1443
a(V2015-06-20 03:45:06+00:00
p1444
F0.033
tp1445
a(V2015-06-20 04:16:50+00:00
p1446
F0.01
tp1447
a(V2015-06-20 04:25:01+00:00
p1448
F0.033
tp1449
a(V2015-06-20 05:11:27+00:00
p1450
F0.01
tp1451
a(V2015-06-20 05:27:03+00:00
p1452
F0.033
tp1453
a(V2015-06-20 05:42:55+00:00
p1454
F0.01
tp1455
a(V2015-06-20 05:50:59+00:00
p1456
F0.033
tp1457
a(V2015-06-20 06:44:58+00:00
p1458
F0.01
tp1459
a(V2015-06-20 06:52:27+00:00
p1460
F0.033
tp1461
a(V2015-06-20 07:07:42+00:00
p1462
F0.01
tp1463
a(V2015-06-20 07:15:37+00:00
p1464
F0.033
tp1465
a(V2015-06-20 07:23:34+00:00
p1466
F0.01
tp1467
a(V2015-06-20 08:01:51+00:00
p1468
F0.033
tp1469
a(V2015-06-20 08:55:00+00:00
p1470
F0.01
tp1471
a(V2015-06-20 09:40:06+00:00
p1472
F0.033
tp1473
a(V2015-06-20 10:17:48+00:00
p1474
F0.01
tp1475
a(V2015-06-20 10:25:11+00:00
p1476
F0.033
tp1477
a(V2015-06-20 10:47:50+00:00
p1478
F0.01
tp1479
a(V2015-06-20 10:55:08+00:00
p1480
F0.033
tp1481
a(V2015-06-20 11:10:26+00:00
p1482
F0.01
tp1483
a(V2015-06-20 11:25:49+00:00
p1484
F0.033
tp1485
a(V2015-06-20 11:33:21+00:00
p1486
F0.01
tp1487
a(V2015-06-20 12:03:45+00:00
p1488
F0.033
tp1489
a(V2015-06-20 12:18:50+00:00
p1490
F0.01
tp1491
a(V2015-06-20 12:26:24+00:00
p1492
F0.033
tp1493
a(V2015-06-20 12:41:42+00:00
p1494
F0.01
tp1495
a(V2015-06-20 13:04:11+00:00
p1496
F0.033
tp1497
a(V2015-06-20 13:27:39+00:00
p1498
F0.01
tp1499
a(V2015-06-20 13:42:40+00:00
p1500
F0.033
tp1501
a(V2015-06-20 13:58:21+00:00
p1502
F0.01
tp1503
a(V2015-06-20 14:13:56+00:00
p1504
F0.033
tp1505
a(V2015-06-20 14:59:55+00:00
p1506
F0.01
tp1507
a(V2015-06-20 15:07:39+00:00
p1508
F0.033
tp1509
a(V2015-06-20 15:15:18+00:00
p1510
F0.01
tp1511
a(V2015-06-20 15:30:44+00:00
p1512
F0.033
tp1513
a(V2015-06-20 15:46:26+00:00
p1514
F0.01
tp1515
a(V2015-06-20 16:10:15+00:00
p1516
F0.033
tp1517
a(V2015-06-20 16:18:02+00:00
p1518
F0.01
tp1519
a(V2015-06-20 16:25:44+00:00
p1520
F0.033
tp1521
a(V2015-06-20 17:20:15+00:00
p1522
F0.01
tp1523
a(V2015-06-20 17:27:54+00:00
p1524
F0.033
tp1525
a(V2015-06-20 17:35:48+00:00
p1526
F0.01
tp1527
a(V2015-06-20 17:43:53+00:00
p1528
F0.033
tp1529
a(V2015-06-20 17:51:24+00:00
p1530
F0.01
tp1531
a(V2015-06-20 17:59:11+00:00
p1532
F0.033
tp1533
a(V2015-06-20 18:06:50+00:00
p1534
F0.01
tp1535
a(V2015-06-20 18:21:59+00:00
p1536
F0.033
tp1537
a(V2015-06-20 18:44:53+00:00
p1538
F0.01
tp1539
a(V2015-06-20 18:52:38+00:00
p1540
F0.033
tp1541
a(V2015-06-20 19:00:05+00:00
p1542
F0.01
tp1543
a(V2015-06-20 19:07:44+00:00
p1544
F0.033
tp1545
a(V2015-06-20 19:15:43+00:00
p1546
F0.01
tp1547
a(V2015-06-20 19:46:16+00:00
p1548
F0.033
tp1549
a(V2015-06-20 20:32:15+00:00
p1550
F0.01
tp1551
a(V2015-06-20 20:55:37+00:00
p1552
F0.033
tp1553
a(V2015-06-20 21:03:09+00:00
p1554
F0.01
tp1555
a(V2015-06-20 21:18:07+00:00
p1556
F0.033
tp1557
a(V2015-06-20 21:25:37+00:00
p1558
F0.01
tp1559
a(V2015-06-20 21:33:10+00:00
p1560
F0.033
tp1561
a(V2015-06-20 21:48:08+00:00
p1562
F0.01
tp1563
a(V2015-06-20 21:56:02+00:00
p1564
F0.033
tp1565
a(V2015-06-20 22:19:09+00:00
p1566
F0.01
tp1567
a(V2015-06-20 22:34:14+00:00
p1568
F0.033
tp1569
a(V2015-06-20 22:41:48+00:00
p1570
F0.01
tp1571
a(V2015-06-20 23:04:02+00:00
p1572
F0.033
tp1573
a(V2015-06-20 23:11:28+00:00
p1574
F0.01
tp1575
a(V2015-06-20 23:19:01+00:00
p1576
F0.033
tp1577
a(V2015-06-21 00:04:35+00:00
p1578
F0.01
tp1579
a(V2015-06-21 00:20:59+00:00
p1580
F0.033
tp1581
a(V2015-06-21 01:57:00+00:00
p1582
F0.01
tp1583
a(V2015-06-21 02:12:14+00:00
p1584
F0.033
tp1585
a(V2015-06-21 02:20:22+00:00
p1586
F0.01
tp1587
a(V2015-06-21 02:28:10+00:00
p1588
F0.033
tp1589
a(V2015-06-21 02:44:58+00:00
p1590
F0.01
tp1591
a(V2015-06-21 03:00:34+00:00
p1592
F0.033
tp1593
a(V2015-06-21 05:03:06+00:00
p1594
F0.01
tp1595
a(V2015-06-21 05:33:52+00:00
p1596
F0.033
tp1597
a(V2015-06-21 06:03:12+00:00
p1598
F0.01
tp1599
a(V2015-06-21 06:26:06+00:00
p1600
F0.033
tp1601
a(V2015-06-21 06:41:37+00:00
p1602
F0.01
tp1603
a(V2015-06-21 06:56:11+00:00
p1604
F0.033
tp1605
a(V2015-06-21 08:25:58+00:00
p1606
F0.01
tp1607
a(V2015-06-21 08:55:07+00:00
p1608
F0.033
tp1609
a(V2015-06-21 09:32:58+00:00
p1610
F0.01
tp1611
a(V2015-06-21 10:02:14+00:00
p1612
F0.033
tp1613
a(V2015-06-21 10:09:40+00:00
p1614
F0.01
tp1615
a(V2015-06-21 10:24:17+00:00
p1616
F0.033
tp1617
a(V2015-06-21 10:39:06+00:00
p1618
F0.01
tp1619
a(V2015-06-21 11:37:49+00:00
p1620
F0.033
tp1621
a(V2015-06-21 12:22:28+00:00
p1622
F0.01
tp1623
a(V2015-06-21 12:37:35+00:00
p1624
F0.033
tp1625
a(V2015-06-21 13:08:25+00:00
p1626
F0.01
tp1627
a(V2015-06-21 13:31:11+00:00
p1628
F0.033
tp1629
a(V2015-06-21 13:46:03+00:00
p1630
F0.01
tp1631
a(V2015-06-21 14:08:52+00:00
p1632
F0.033
tp1633
a(V2015-06-21 14:23:57+00:00
p1634
F0.01
tp1635
a(V2015-06-21 14:39:16+00:00
p1636
F0.033
tp1637
a(V2015-06-21 15:01:39+00:00
p1638
F0.01
tp1639
a(V2015-06-21 15:09:02+00:00
p1640
F0.033
tp1641
a(V2015-06-21 15:16:41+00:00
p1642
F0.01
tp1643
a(V2015-06-21 15:54:51+00:00
p1644
F0.033
tp1645
a(V2015-06-21 16:25:57+00:00
p1646
F0.01
tp1647
a(V2015-06-21 16:57:42+00:00
p1648
F0.033
tp1649
a(V2015-06-21 17:13:09+00:00
p1650
F0.01
tp1651
a(V2015-06-21 17:51:22+00:00
p1652
F0.033
tp1653
a(V2015-06-21 18:21:34+00:00
p1654
F0.01
tp1655
a(V2015-06-21 18:44:24+00:00
p1656
F0.033
tp1657
a(V2015-06-21 18:59:01+00:00
p1658
F0.01
tp1659
a(V2015-06-21 19:13:53+00:00
p1660
F0.033
tp1661
a(V2015-06-21 19:51:32+00:00
p1662
F0.01
tp1663
a(V2015-06-21 20:06:44+00:00
p1664
F0.033
tp1665
a(V2015-06-21 20:29:50+00:00
p1666
F0.01
tp1667
a(V2015-06-21 20:37:10+00:00
p1668
F0.033
tp1669
a(V2015-06-21 20:59:41+00:00
p1670
F0.01
tp1671
a(V2015-06-21 21:07:18+00:00
p1672
F0.033
tp1673
a(V2015-06-21 21:53:30+00:00
p1674
F0.01
tp1675
a(V2015-06-21 22:01:04+00:00
p1676
F0.033
tp1677
a(V2015-06-21 22:16:16+00:00
p1678
F0.01
tp1679
a(V2015-06-21 22:31:46+00:00
p1680
F0.033
tp1681
a(V2015-06-21 22:39:02+00:00
p1682
F0.01
tp1683
a(V2015-06-21 22:53:35+00:00
p1684
F0.033
tp1685
a(V2015-06-21 23:16:35+00:00
p1686
F0.01
tp1687
a(V2015-06-21 23:32:05+00:00
p1688
F0.033
tp1689
a(V2015-06-21 23:47:02+00:00
p1690
F0.01
tp1691
a(V2015-06-22 00:02:35+00:00
p1692
F0.033
tp1693
a(V2015-06-22 00:19:27+00:00
p1694
F0.01
tp1695
a(V2015-06-22 00:44:18+00:00
p1696
F0.033
tp1697
a(V2015-06-22 00:52:01+00:00
p1698
F0.01
tp1699
a(V2015-06-22 01:07:56+00:00
p1700
F0.033
tp1701
a(V2015-06-22 01:15:38+00:00
p1702
F0.01
tp1703
a(V2015-06-22 01:38:43+00:00
p1704
F0.033
tp1705
a(V2015-06-22 01:46:22+00:00
p1706
F0.01
tp1707
a(V2015-06-22 02:09:47+00:00
p1708
F0.033
tp1709
a(V2015-06-22 02:25:40+00:00
p1710
F0.01
tp1711
a(V2015-06-22 02:33:29+00:00
p1712
F0.033
tp1713
a(V2015-06-22 03:43:29+00:00
p1714
F0.01
tp1715
a(V2015-06-22 03:51:16+00:00
p1716
F0.033
tp1717
a(V2015-06-22 04:14:27+00:00
p1718
F0.01
tp1719
a(V2015-06-22 04:22:12+00:00
p1720
F0.033
tp1721
a(V2015-06-22 04:44:39+00:00
p1722
F0.01
tp1723
a(V2015-06-22 04:52:05+00:00
p1724
F0.033
tp1725
a(V2015-06-22 04:59:39+00:00
p1726
F0.01
tp1727
a(V2015-06-22 05:07:17+00:00
p1728
F0.033
tp1729
a(V2015-06-22 05:22:26+00:00
p1730
F0.01
tp1731
a(V2015-06-22 05:37:33+00:00
p1732
F0.033
tp1733
a(V2015-06-22 06:52:00+00:00
p1734
F0.01
tp1735
a(V2015-06-22 07:14:23+00:00
p1736
F0.033
tp1737
a(V2015-06-22 07:29:46+00:00
p1738
F0.01
tp1739
a(V2015-06-22 07:44:59+00:00
p1740
F0.033
tp1741
a(V2015-06-22 07:52:25+00:00
p1742
F0.01
tp1743
a(V2015-06-22 08:15:22+00:00
p1744
F0.033
tp1745
a(V2015-06-22 08:30:36+00:00
p1746
F0.01
tp1747
a(V2015-06-22 08:53:29+00:00
p1748
F0.033
tp1749
a(V2015-06-22 09:16:18+00:00
p1750
F0.01
tp1751
a(V2015-06-23 09:23:40+00:00
p1752
F0.01
tp1753
a(V2015-06-24 09:29:12+00:00
p1754
F0.01
tp1755
a(V2015-06-25 09:29:14+00:00
p1756
F0.01
tp1757
a(V2015-06-26 09:33:35+00:00
p1758
F0.01
tp1759
a(V2015-06-27 09:37:56+00:00
p1760
F0.01
tp1761
a(V2015-06-28 09:44:32+00:00
p1762
F0.01
tp1763
a(V2015-06-29 09:46:17+00:00
p1764
F0.01
tp1765
a(V2015-06-29 10:08:11+00:00
p1766
F0.02
tp1767
a(V2015-06-29 10:30:57+00:00
p1768
F0.01
tp1769
a(V2015-06-29 10:38:36+00:00
p1770
F0.033
tp1771
a(V2015-06-29 10:45:53+00:00
p1772
F0.01
tp1773
a(V2015-06-29 11:15:19+00:00
p1774
F0.033
tp1775
a(V2015-06-29 11:22:53+00:00
p1776
F0.01
tp1777
a(V2015-06-29 11:59:57+00:00
p1778
F0.033
tp1779
a(V2015-06-29 12:07:43+00:00
p1780
F0.01
tp1781
a(V2015-06-29 12:38:15+00:00
p1782
F0.033
tp1783
a(V2015-06-29 12:45:57+00:00
p1784
F0.01
tp1785
a(V2015-06-29 13:08:32+00:00
p1786
F0.033
tp1787
a(V2015-06-29 13:24:12+00:00
p1788
F0.01
tp1789
a(V2015-06-29 13:31:59+00:00
p1790
F0.033
tp1791
a(V2015-06-29 13:39:24+00:00
p1792
F0.01
tp1793
a(V2015-06-29 13:54:56+00:00
p1794
F0.033
tp1795
a(V2015-06-29 14:19:27+00:00
p1796
F0.01
tp1797
a(V2015-06-29 14:51:27+00:00
p1798
F0.033
tp1799
a(V2015-06-29 14:59:50+00:00
p1800
F0.01
tp1801
a(V2015-06-30 05:11:18+00:00
p1802
F0.033
tp1803
a(V2015-06-30 05:35:22+00:00
p1804
F0.01
tp1805
a(V2015-06-30 05:43:49+00:00
p1806
F0.033
tp1807
a(V2015-06-30 06:07:10+00:00
p1808
F0.01
tp1809
a(V2015-06-30 06:15:03+00:00
p1810
F0.033
tp1811
a(V2015-06-30 06:22:38+00:00
p1812
F0.01
tp1813
a(V2015-06-30 06:38:15+00:00
p1814
F0.033
tp1815
a(V2015-06-30 06:46:17+00:00
p1816
F0.01
tp1817
a(V2015-06-30 07:02:13+00:00
p1818
F0.033
tp1819
a(V2015-06-30 07:17:43+00:00
p1820
F0.01
tp1821
a(V2015-06-30 07:33:50+00:00
p1822
F0.033
tp1823
a(V2015-06-30 07:49:36+00:00
p1824
F0.01
tp1825
a(V2015-06-30 08:12:50+00:00
p1826
F0.033
tp1827
a(V2015-06-30 08:50:43+00:00
p1828
F0.01
tp1829
a(V2015-06-30 09:37:35+00:00
p1830
F0.033
tp1831
a(V2015-06-30 10:07:31+00:00
p1832
F0.01
tp1833
a(V2015-06-30 10:29:53+00:00
p1834
F0.033
tp1835
a(V2015-06-30 11:21:44+00:00
p1836
F0.01
tp1837
a(V2015-06-30 11:36:41+00:00
p1838
F0.033
tp1839
a(V2015-06-30 11:44:22+00:00
p1840
F0.01
tp1841
a(V2015-06-30 12:14:49+00:00
p1842
F0.033
tp1843
a(V2015-06-30 12:22:39+00:00
p1844
F0.01
tp1845
a(V2015-06-30 12:38:35+00:00
p1846
F0.033
tp1847
a(V2015-06-30 13:08:56+00:00
p1848
F0.01
tp1849
a(V2015-06-30 13:39:55+00:00
p1850
F0.033
tp1851
a(V2015-06-30 14:02:43+00:00
p1852
F0.01
tp1853
a(V2015-06-30 14:25:56+00:00
p1854
F0.033
tp1855
a(V2015-06-30 14:49:37+00:00
p1856
F0.01
tp1857
a(V2015-06-30 15:20:31+00:00
p1858
F0.033
tp1859
a(V2015-06-30 15:28:32+00:00
p1860
F0.01
tp1861
a(V2015-06-30 15:44:11+00:00
p1862
F0.033
tp1863
a(V2015-06-30 15:51:44+00:00
p1864
F0.01
tp1865
a(V2015-06-30 16:07:48+00:00
p1866
F0.033
tp1867
a(V2015-06-30 16:23:33+00:00
p1868
F0.01
tp1869
a(V2015-06-30 16:40:04+00:00
p1870
F0.033
tp1871
a(V2015-06-30 17:36:43+00:00
p1872
F0.01
tp1873
a(V2015-06-30 17:44:36+00:00
p1874
F0.033
tp1875
a(V2015-06-30 18:24:03+00:00
p1876
F0.01
tp1877
a(V2015-06-30 18:32:13+00:00
p1878
F0.033
tp1879
a(V2015-06-30 18:40:17+00:00
p1880
F0.01
tp1881
a(V2015-06-30 19:05:35+00:00
p1882
F0.02
tp1883
a(V2015-06-30 19:47:11+00:00
p1884
F0.01
tp1885
a(V2015-06-30 19:55:13+00:00
p1886
F0.02
tp1887
a(V2015-06-30 20:11:16+00:00
p1888
F0.01
tp1889
a(V2015-06-30 20:34:50+00:00
p1890
F0.02
tp1891
a(V2015-06-30 20:42:50+00:00
p1892
F0.01
tp1893
a(V2015-06-30 20:50:50+00:00
p1894
F0.02
tp1895
a(V2015-06-30 21:58:07+00:00
p1896
F0.01
tp1897
a(V2015-06-30 22:14:39+00:00
p1898
F0.02
tp1899
a(V2015-06-30 22:23:20+00:00
p1900
F0.01
tp1901
a(V2015-06-30 22:31:32+00:00
p1902
F0.02
tp1903
a(V2015-06-30 22:39:59+00:00
p1904
F0.01
tp1905
a(V2015-06-30 22:56:19+00:00
p1906
F0.02
tp1907
a(V2015-06-30 23:36:01+00:00
p1908
F0.01
tp1909
a(V2015-06-30 23:51:22+00:00
p1910
F0.02
tp1911
a(V2015-07-01 00:51:26+00:00
p1912
F0.01
tp1913
a(V2015-07-01 01:19:01+00:00
p1914
F0.02
tp1915
a(V2015-07-01 01:52:57+00:00
p1916
F0.01
tp1917
a(V2015-07-01 02:02:00+00:00
p1918
F0.02
tp1919
a(V2015-07-01 02:19:53+00:00
p1920
F0.01
tp1921
a(V2015-07-01 02:28:20+00:00
p1922
F0.02
tp1923
a(V2015-07-01 03:01:06+00:00
p1924
F0.01
tp1925
a(V2015-07-01 03:17:40+00:00
p1926
F0.02
tp1927
a(V2015-07-01 03:42:33+00:00
p1928
F0.01
tp1929
a(V2015-07-01 04:08:37+00:00
p1930
F0.02
tp1931
a(V2015-07-01 04:16:46+00:00
p1932
F0.01
tp1933
a(V2015-07-01 04:33:28+00:00
p1934
F0.02
tp1935
a(V2015-07-01 04:57:15+00:00
p1936
F0.01
tp1937
a(V2015-07-01 05:14:37+00:00
p1938
F0.02
tp1939
a(V2015-07-01 05:55:06+00:00
p1940
F0.01
tp1941
a(V2015-07-01 06:03:10+00:00
p1942
F0.02
tp1943
a(V2015-07-01 06:26:53+00:00
p1944
F0.01
tp1945
a(V2015-07-01 06:42:55+00:00
p1946
F0.02
tp1947
a(V2015-07-01 06:50:36+00:00
p1948
F0.01
tp1949
a(V2015-07-01 06:58:13+00:00
p1950
F0.02
tp1951
a(V2015-07-01 07:14:35+00:00
p1952
F0.01
tp1953
a(V2015-07-01 07:23:02+00:00
p1954
F0.02
tp1955
a(V2015-07-01 07:31:17+00:00
p1956
F0.01
tp1957
a(V2015-07-01 07:40:08+00:00
p1958
F0.02
tp1959
a(V2015-07-01 08:21:01+00:00
p1960
F0.01
tp1961
a(V2015-07-01 08:39:23+00:00
p1962
F0.02
tp1963
a(V2015-07-01 08:59:20+00:00
p1964
F0.01
tp1965
a(V2015-07-01 09:09:08+00:00
p1966
F0.02
tp1967
a(V2015-07-01 09:36:20+00:00
p1968
F0.01
tp1969
a(V2015-07-01 09:44:29+00:00
p1970
F0.02
tp1971
a(V2015-07-01 09:52:28+00:00
p1972
F0.01
tp1973
a(V2015-07-01 10:08:02+00:00
p1974
F0.02
tp1975
a(V2015-07-01 10:31:31+00:00
p1976
F0.01
tp1977
a(V2015-07-01 10:39:19+00:00
p1978
F0.02
tp1979
a(V2015-07-01 10:47:03+00:00
p1980
F0.01
tp1981
a(V2015-07-01 11:02:34+00:00
p1982
F0.02
tp1983
a(V2015-07-01 12:06:06+00:00
p1984
F0.01
tp1985
a(V2015-07-01 12:13:57+00:00
p1986
F0.02
tp1987
a(V2015-07-01 12:46:23+00:00
p1988
F0.01
tp1989
a(V2015-07-01 13:11:04+00:00
p1990
F0.02
tp1991
a(V2015-07-01 14:35:06+00:00
p1992
F0.01
tp1993
a(V2015-07-01 14:59:49+00:00
p1994
F0.02
tp1995
a(V2015-07-01 15:08:06+00:00
p1996
F0.01
tp1997
a(V2015-07-01 15:17:18+00:00
p1998
F0.02
tp1999
a(V2015-07-01 18:08:42+00:00
p2000
F0.01
tp2001
a(V2015-07-01 18:20:39+00:00
p2002
F0.02
tp2003
a(V2015-07-01 18:44:49+00:00
p2004
F0.01
tp2005
a(V2015-07-01 18:54:50+00:00
p2006
F0.02
tp2007
a(V2015-07-01 19:37:04+00:00
p2008
F0.01
tp2009
a(V2015-07-01 20:01:20+00:00
p2010
F0.02
tp2011
a(V2015-07-01 20:18:27+00:00
p2012
F0.01
tp2013
a(V2015-07-01 21:08:06+00:00
p2014
F0.02
tp2015
a(V2015-07-01 21:25:27+00:00
p2016
F0.01
tp2017
a(V2015-07-01 21:33:31+00:00
p2018
F0.02
tp2019
a(V2015-07-01 21:41:39+00:00
p2020
F0.01
tp2021
a(V2015-07-01 22:21:12+00:00
p2022
F0.02
tp2023
a(V2015-07-01 22:37:38+00:00
p2024
F0.01
tp2025
a(V2015-07-01 23:01:33+00:00
p2026
F0.02
tp2027
a(V2015-07-01 23:18:06+00:00
p2028
F0.01
tp2029
a(V2015-07-01 23:26:18+00:00
p2030
F0.02
tp2031
a(V2015-07-01 23:43:01+00:00
p2032
F0.01
tp2033
a(V2015-07-01 23:51:16+00:00
p2034
F0.02
tp2035
a(V2015-07-02 00:17:21+00:00
p2036
F0.01
tp2037
a(V2015-07-02 00:34:33+00:00
p2038
F0.02
tp2039
a(V2015-07-02 01:08:53+00:00
p2040
F0.01
tp2041
a(V2015-07-02 01:25:53+00:00
p2042
F0.02
tp2043
a(V2015-07-02 02:31:10+00:00
p2044
F0.01
tp2045
a(V2015-07-02 02:54:28+00:00
p2046
F0.02
tp2047
a(V2015-07-02 03:50:23+00:00
p2048
F0.01
tp2049
a(V2015-07-02 03:58:18+00:00
p2050
F0.02
tp2051
a(V2015-07-02 04:15:07+00:00
p2052
F0.01
tp2053
a(V2015-07-02 04:23:42+00:00
p2054
F0.02
tp2055
a(V2015-07-02 04:31:34+00:00
p2056
F0.01
tp2057
a(V2015-07-02 04:39:14+00:00
p2058
F0.02
tp2059
a(V2015-07-02 05:35:37+00:00
p2060
F0.01
tp2061
a(V2015-07-02 05:43:41+00:00
p2062
F0.02
tp2063
a(V2015-07-02 06:47:50+00:00
p2064
F0.01
tp2065
a(V2015-07-02 07:04:09+00:00
p2066
F0.02
tp2067
a(V2015-07-02 07:12:24+00:00
p2068
F0.01
tp2069
a(V2015-07-02 07:21:02+00:00
p2070
F0.02
tp2071
a(V2015-07-02 07:37:55+00:00
p2072
F0.01
tp2073
a(V2015-07-02 08:01:43+00:00
p2074
F0.02
tp2075
a(V2015-07-02 08:26:55+00:00
p2076
F0.01
tp2077
a(V2015-07-02 08:34:59+00:00
p2078
F0.02
tp2079
a(V2015-07-02 10:05:38+00:00
p2080
F0.01
tp2081
a(V2015-07-02 10:22:09+00:00
p2082
F0.02
tp2083
a(V2015-07-02 10:29:52+00:00
p2084
F0.01
tp2085
a(V2015-07-02 10:37:58+00:00
p2086
F0.02
tp2087
a(V2015-07-02 10:45:46+00:00
p2088
F0.01
tp2089
a(V2015-07-02 11:01:39+00:00
p2090
F0.02
tp2091
a(V2015-07-02 11:34:31+00:00
p2092
F0.01
tp2093
a(V2015-07-02 11:50:22+00:00
p2094
F0.02
tp2095
a(V2015-07-02 11:58:24+00:00
p2096
F0.01
tp2097
a(V2015-07-02 12:14:30+00:00
p2098
F0.02
tp2099
a(V2015-07-02 12:22:39+00:00
p2100
F0.01
tp2101
a(V2015-07-02 12:31:15+00:00
p2102
F0.02
tp2103
a(V2015-07-02 12:39:31+00:00
p2104
F0.01
tp2105
a(V2015-07-02 12:55:14+00:00
p2106
F0.02
tp2107
a(V2015-07-02 13:03:19+00:00
p2108
F0.01
tp2109
a(V2015-07-02 13:43:32+00:00
p2110
F0.02
tp2111
a(V2015-07-02 14:00:07+00:00
p2112
F0.01
tp2113
a(V2015-07-02 14:08:27+00:00
p2114
F0.02
tp2115
a(V2015-07-02 14:16:28+00:00
p2116
F0.01
tp2117
a(V2015-07-02 14:32:43+00:00
p2118
F0.02
tp2119
a(V2015-07-02 14:41:11+00:00
p2120
F0.01
tp2121
a(V2015-07-02 14:49:57+00:00
p2122
F0.02
tp2123
a(V2015-07-02 14:58:30+00:00
p2124
F0.01
tp2125
a(V2015-07-02 15:15:31+00:00
p2126
F0.02
tp2127
a(V2015-07-02 15:32:39+00:00
p2128
F0.01
tp2129
a(V2015-07-02 15:49:00+00:00
p2130
F0.02
tp2131
a(V2015-07-02 17:18:47+00:00
p2132
F0.01
tp2133
a(V2015-07-02 17:26:58+00:00
p2134
F0.02
tp2135
a(V2015-07-02 17:43:28+00:00
p2136
F0.01
tp2137
a(V2015-07-02 17:51:44+00:00
p2138
F0.02
tp2139
a(V2015-07-02 18:16:01+00:00
p2140
F0.01
tp2141
a(V2015-07-02 18:32:08+00:00
p2142
F0.02
tp2143
a(V2015-07-02 18:48:08+00:00
p2144
F0.01
tp2145
a(V2015-07-02 18:56:00+00:00
p2146
F0.02
tp2147
a(V2015-07-02 19:20:18+00:00
p2148
F0.01
tp2149
a(V2015-07-02 19:28:22+00:00
p2150
F0.02
tp2151
a(V2015-07-02 19:36:18+00:00
p2152
F0.01
tp2153
a(V2015-07-02 20:00:04+00:00
p2154
F0.02
tp2155
a(V2015-07-02 20:24:18+00:00
p2156
F0.01
tp2157
a(V2015-07-02 20:31:54+00:00
p2158
F0.02
tp2159
a(V2015-07-02 20:48:06+00:00
p2160
F0.01
tp2161
a(V2015-07-02 20:55:52+00:00
p2162
F0.02
tp2163
a(V2015-07-02 21:03:47+00:00
p2164
F0.01
tp2165
a(V2015-07-02 21:20:39+00:00
p2166
F0.02
tp2167
a(V2015-07-02 21:52:04+00:00
p2168
F0.01
tp2169
a(V2015-07-02 22:15:56+00:00
p2170
F0.02
tp2171
a(V2015-07-02 22:24:09+00:00
p2172
F0.01
tp2173
a(V2015-07-02 23:10:23+00:00
p2174
F0.02
tp2175
a(V2015-07-02 23:25:33+00:00
p2176
F0.01
tp2177
a(V2015-07-02 23:56:27+00:00
p2178
F0.02
tp2179
a(V2015-07-03 00:21:13+00:00
p2180
F0.01
tp2181
a(V2015-07-03 00:37:19+00:00
p2182
F0.02
tp2183
a(V2015-07-03 00:45:39+00:00
p2184
F0.01
tp2185
a(V2015-07-03 01:01:35+00:00
p2186
F0.02
tp2187
a(V2015-07-03 01:09:44+00:00
p2188
F0.01
tp2189
a(V2015-07-03 01:25:48+00:00
p2190
F0.02
tp2191
a(V2015-07-03 01:33:28+00:00
p2192
F0.01
tp2193
a(V2015-07-03 01:55:43+00:00
p2194
F0.02
tp2195
a(V2015-07-03 02:03:44+00:00
p2196
F0.01
tp2197
a(V2015-07-03 02:11:35+00:00
p2198
F0.02
tp2199
a(V2015-07-03 02:36:18+00:00
p2200
F0.01
tp2201
a(V2015-07-03 03:08:39+00:00
p2202
F0.02
tp2203
a(V2015-07-03 03:32:38+00:00
p2204
F0.01
tp2205
a(V2015-07-03 03:40:32+00:00
p2206
F0.02
tp2207
a(V2015-07-03 04:03:15+00:00
p2208
F0.01
tp2209
a(V2015-07-03 04:18:40+00:00
p2210
F0.02
tp2211
a(V2015-07-03 04:26:38+00:00
p2212
F0.01
tp2213
a(V2015-07-03 04:56:26+00:00
p2214
F0.02
tp2215
a(V2015-07-03 05:58:45+00:00
p2216
F0.01
tp2217
a(V2015-07-03 06:22:01+00:00
p2218
F0.02
tp2219
a(V2015-07-03 06:45:08+00:00
p2220
F0.01
tp2221
a(V2015-07-03 07:53:06+00:00
p2222
F0.02
tp2223
a(V2015-07-03 09:10:33+00:00
p2224
F0.01
tp2225
a(V2015-07-03 09:25:39+00:00
p2226
F0.02
tp2227
a(V2015-07-03 10:18:59+00:00
p2228
F0.01
tp2229
a(V2015-07-03 10:26:12+00:00
p2230
F0.02
tp2231
a(V2015-07-03 11:03:59+00:00
p2232
F0.01
tp2233
a(V2015-07-03 11:19:51+00:00
p2234
F0.02
tp2235
a(V2015-07-03 11:27:33+00:00
p2236
F0.01
tp2237
a(V2015-07-03 11:50:45+00:00
p2238
F0.02
tp2239
a(V2015-07-03 12:06:03+00:00
p2240
F0.01
tp2241
a(V2015-07-03 12:13:58+00:00
p2242
F0.02
tp2243
a(V2015-07-03 13:00:10+00:00
p2244
F0.01
tp2245
a(V2015-07-03 13:24:04+00:00
p2246
F0.02
tp2247
a(V2015-07-03 13:47:01+00:00
p2248
F0.01
tp2249
a(V2015-07-03 14:02:20+00:00
p2250
F0.02
tp2251
a(V2015-07-03 14:41:28+00:00
p2252
F0.01
tp2253
a(V2015-07-03 14:49:10+00:00
p2254
F0.02
tp2255
a(V2015-07-03 15:04:14+00:00
p2256
F0.01
tp2257
a(V2015-07-03 15:19:21+00:00
p2258
F0.02
tp2259
a(V2015-07-03 15:42:17+00:00
p2260
F0.01
tp2261
a(V2015-07-03 15:49:59+00:00
p2262
F0.02
tp2263
a(V2015-07-03 15:57:49+00:00
p2264
F0.01
tp2265
a(V2015-07-03 16:13:49+00:00
p2266
F0.02
tp2267
a(V2015-07-03 16:45:20+00:00
p2268
F0.01
tp2269
a(V2015-07-03 17:08:00+00:00
p2270
F0.02
tp2271
a(V2015-07-03 17:38:21+00:00
p2272
F0.01
tp2273
a(V2015-07-03 18:00:57+00:00
p2274
F0.02
tp2275
a(V2015-07-03 18:08:54+00:00
p2276
F0.01
tp2277
a(V2015-07-03 18:47:07+00:00
p2278
F0.02
tp2279
a(V2015-07-03 19:24:38+00:00
p2280
F0.01
tp2281
a(V2015-07-03 19:32:00+00:00
p2282
F0.02
tp2283
a(V2015-07-03 19:39:28+00:00
p2284
F0.01
tp2285
a(V2015-07-03 19:54:06+00:00
p2286
F0.02
tp2287
a(V2015-07-03 20:01:26+00:00
p2288
F0.01
tp2289
a(V2015-07-03 20:08:53+00:00
p2290
F0.02
tp2291
a(V2015-07-03 20:16:10+00:00
p2292
F0.01
tp2293
a(V2015-07-03 20:30:42+00:00
p2294
F0.02
tp2295
a(V2015-07-03 20:38:14+00:00
p2296
F0.01
tp2297
a(V2015-07-03 20:45:33+00:00
p2298
F0.02
tp2299
a(V2015-07-03 20:53:00+00:00
p2300
F0.01
tp2301
a(V2015-07-03 21:08:17+00:00
p2302
F0.02
tp2303
a(V2015-07-03 21:16:02+00:00
p2304
F0.01
tp2305
a(V2015-07-03 21:31:29+00:00
p2306
F0.02
tp2307
a(V2015-07-03 21:39:12+00:00
p2308
F0.01
tp2309
a(V2015-07-03 22:02:26+00:00
p2310
F0.02
tp2311
a(V2015-07-03 22:25:07+00:00
p2312
F0.01
tp2313
a(V2015-07-03 22:39:58+00:00
p2314
F0.02
tp2315
a(V2015-07-03 23:17:20+00:00
p2316
F0.01
tp2317
a(V2015-07-03 23:24:47+00:00
p2318
F0.02
tp2319
a(V2015-07-03 23:39:35+00:00
p2320
F0.01
tp2321
a(V2015-07-04 00:01:44+00:00
p2322
F0.02
tp2323
a(V2015-07-04 00:09:27+00:00
p2324
F0.01
tp2325
a(V2015-07-04 00:25:00+00:00
p2326
F0.02
tp2327
a(V2015-07-04 00:32:24+00:00
p2328
F0.01
tp2329
a(V2015-07-04 00:39:47+00:00
p2330
F0.02
tp2331
a(V2015-07-04 00:47:12+00:00
p2332
F0.01
tp2333
a(V2015-07-04 00:55:02+00:00
p2334
F0.02
tp2335
a(V2015-07-04 01:26:45+00:00
p2336
F0.01
tp2337
a(V2015-07-04 02:14:31+00:00
p2338
F0.02
tp2339
a(V2015-07-04 02:22:29+00:00
p2340
F0.01
tp2341
a(V2015-07-04 02:38:17+00:00
p2342
F0.02
tp2343
a(V2015-07-04 03:09:59+00:00
p2344
F0.01
tp2345
a(V2015-07-04 03:26:07+00:00
p2346
F0.02
tp2347
a(V2015-07-04 04:04:47+00:00
p2348
F0.01
tp2349
a(V2015-07-04 04:20:06+00:00
p2350
F0.02
tp2351
a(V2015-07-04 04:27:57+00:00
p2352
F0.01
tp2353
a(V2015-07-04 05:14:31+00:00
p2354
F0.02
tp2355
a(V2015-07-04 05:37:28+00:00
p2356
F0.01
tp2357
a(V2015-07-04 05:45:45+00:00
p2358
F0.02
tp2359
a(V2015-07-04 06:09:39+00:00
p2360
F0.01
tp2361
a(V2015-07-04 06:25:12+00:00
p2362
F0.02
tp2363
a(V2015-07-04 06:32:36+00:00
p2364
F0.01
tp2365
a(V2015-07-04 06:40:10+00:00
p2366
F0.02
tp2367
a(V2015-07-04 06:47:32+00:00
p2368
F0.01
tp2369
a(V2015-07-04 07:02:35+00:00
p2370
F0.02
tp2371
a(V2015-07-04 07:10:38+00:00
p2372
F0.01
tp2373
a(V2015-07-04 07:26:22+00:00
p2374
F0.02
tp2375
a(V2015-07-04 07:34:19+00:00
p2376
F0.01
tp2377
a(V2015-07-04 08:06:10+00:00
p2378
F0.02
tp2379
a(V2015-07-04 08:37:42+00:00
p2380
F0.01
tp2381
a(V2015-07-04 08:45:24+00:00
p2382
F0.02
tp2383
a(V2015-07-04 09:01:03+00:00
p2384
F0.01
tp2385
a(V2015-07-04 09:09:13+00:00
p2386
F0.02
tp2387
a(V2015-07-04 09:17:11+00:00
p2388
F0.01
tp2389
a(V2015-07-04 09:25:02+00:00
p2390
F0.02
tp2391
a(V2015-07-04 09:40:17+00:00
p2392
F0.01
tp2393
a(V2015-07-04 09:55:32+00:00
p2394
F0.02
tp2395
a(V2015-07-04 10:26:53+00:00
p2396
F0.01
tp2397
a(V2015-07-04 10:42:38+00:00
p2398
F0.02
tp2399
a(V2015-07-04 10:57:43+00:00
p2400
F0.01
tp2401
a(V2015-07-04 11:20:45+00:00
p2402
F0.02
tp2403
a(V2015-07-04 11:28:36+00:00
p2404
F0.01
tp2405
a(V2015-07-04 11:43:42+00:00
p2406
F0.02
tp2407
a(V2015-07-04 11:51:23+00:00
p2408
F0.01
tp2409
a(V2015-07-04 12:07:09+00:00
p2410
F0.02
tp2411
a(V2015-07-04 12:14:51+00:00
p2412
F0.01
tp2413
a(V2015-07-04 12:53:23+00:00
p2414
F0.02
tp2415
a(V2015-07-04 13:31:25+00:00
p2416
F0.01
tp2417
a(V2015-07-04 13:46:41+00:00
p2418
F0.02
tp2419
a(V2015-07-04 13:54:18+00:00
p2420
F0.01
tp2421
a(V2015-07-04 14:01:56+00:00
p2422
F0.02
tp2423
a(V2015-07-04 14:09:49+00:00
p2424
F0.01
tp2425
a(V2015-07-04 14:48:23+00:00
p2426
F0.02
tp2427
a(V2015-07-04 15:11:37+00:00
p2428
F0.01
tp2429
a(V2015-07-04 15:19:32+00:00
p2430
F0.02
tp2431
a(V2015-07-04 15:50:31+00:00
p2432
F0.01
tp2433
a(V2015-07-04 16:13:40+00:00
p2434
F0.02
tp2435
a(V2015-07-04 17:40:40+00:00
p2436
F0.01
tp2437
a(V2015-07-04 17:56:01+00:00
p2438
F0.02
tp2439
a(V2015-07-04 18:03:30+00:00
p2440
F0.01
tp2441
a(V2015-07-04 18:18:27+00:00
p2442
F0.02
tp2443
a(V2015-07-04 18:48:47+00:00
p2444
F0.01
tp2445
a(V2015-07-04 18:56:12+00:00
p2446
F0.02
tp2447
a(V2015-07-04 19:19:05+00:00
p2448
F0.01
tp2449
a(V2015-07-04 19:26:47+00:00
p2450
F0.02
tp2451
a(V2015-07-04 19:42:10+00:00
p2452
F0.01
tp2453
a(V2015-07-04 20:04:52+00:00
p2454
F0.02
tp2455
a(V2015-07-04 20:19:24+00:00
p2456
F0.01
tp2457
a(V2015-07-04 20:33:58+00:00
p2458
F0.02
tp2459
a(V2015-07-04 20:48:30+00:00
p2460
F0.01
tp2461
a(V2015-07-04 20:55:34+00:00
p2462
F0.02
tp2463
a(V2015-07-04 21:17:05+00:00
p2464
F0.01
tp2465
a(V2015-07-04 21:39:17+00:00
p2466
F0.02
tp2467
a(V2015-07-04 21:46:34+00:00
p2468
F0.01
tp2469
a(V2015-07-04 22:01:12+00:00
p2470
F0.02
tp2471
a(V2015-07-04 22:16:08+00:00
p2472
F0.01
tp2473
a(V2015-07-04 22:38:26+00:00
p2474
F0.02
tp2475
a(V2015-07-04 23:00:35+00:00
p2476
F0.01
tp2477
a(V2015-07-04 23:08:06+00:00
p2478
F0.02
tp2479
a(V2015-07-04 23:15:34+00:00
p2480
F0.01
tp2481
a(V2015-07-04 23:37:50+00:00
p2482
F0.02
tp2483
a(V2015-07-04 23:52:34+00:00
p2484
F0.01
tp2485
a(V2015-07-05 00:07:53+00:00
p2486
F0.02
tp2487
a(V2015-07-05 00:32:17+00:00
p2488
F0.01
tp2489
a(V2015-07-05 00:55:59+00:00
p2490
F0.02
tp2491
a(V2015-07-05 01:28:23+00:00
p2492
F0.01
tp2493
a(V2015-07-05 01:43:15+00:00
p2494
F0.02
tp2495
a(V2015-07-05 01:57:48+00:00
p2496
F0.01
tp2497
a(V2015-07-05 02:13:25+00:00
p2498
F0.02
tp2499
a(V2015-07-05 02:36:59+00:00
p2500
F0.01
tp2501
a(V2015-07-05 02:44:55+00:00
p2502
F0.02
tp2503
a(V2015-07-05 03:46:43+00:00
p2504
F0.01
tp2505
a(V2015-07-05 04:01:34+00:00
p2506
F0.02
tp2507
a(V2015-07-05 04:09:10+00:00
p2508
F0.01
tp2509
a(V2015-07-05 04:32:52+00:00
p2510
F0.02
tp2511
a(V2015-07-05 05:02:39+00:00
p2512
F0.01
tp2513
a(V2015-07-05 05:10:34+00:00
p2514
F0.02
tp2515
a(V2015-07-05 05:18:15+00:00
p2516
F0.01
tp2517
a(V2015-07-05 05:26:00+00:00
p2518
F0.02
tp2519
a(V2015-07-05 05:41:32+00:00
p2520
F0.01
tp2521
a(V2015-07-05 06:04:28+00:00
p2522
F0.02
tp2523
a(V2015-07-05 06:12:07+00:00
p2524
F0.01
tp2525
a(V2015-07-05 06:19:36+00:00
p2526
F0.02
tp2527
a(V2015-07-05 06:27:07+00:00
p2528
F0.01
tp2529
a(V2015-07-05 06:49:49+00:00
p2530
F0.02
tp2531
a(V2015-07-05 08:05:11+00:00
p2532
F0.01
tp2533
a(V2015-07-05 08:20:13+00:00
p2534
F0.02
tp2535
a(V2015-07-05 08:49:55+00:00
p2536
F0.01
tp2537
a(V2015-07-05 08:57:28+00:00
p2538
F0.02
tp2539
a(V2015-07-05 09:05:10+00:00
p2540
F0.01
tp2541
a(V2015-07-05 09:13:14+00:00
p2542
F0.02
tp2543
a(V2015-07-05 09:57:59+00:00
p2544
F0.01
tp2545
a(V2015-07-05 10:20:47+00:00
p2546
F0.02
tp2547
a(V2015-07-05 10:27:56+00:00
p2548
F0.01
tp2549
a(V2015-07-05 10:49:49+00:00
p2550
F0.02
tp2551
a(V2015-07-05 11:04:55+00:00
p2552
F0.01
tp2553
a(V2015-07-05 11:27:57+00:00
p2554
F0.02
tp2555
a(V2015-07-05 11:57:10+00:00
p2556
F0.01
tp2557
a(V2015-07-05 12:20:33+00:00
p2558
F0.02
tp2559
a(V2015-07-05 12:43:28+00:00
p2560
F0.01
tp2561
a(V2015-07-05 12:51:07+00:00
p2562
F0.02
tp2563
a(V2015-07-05 12:58:50+00:00
p2564
F0.01
tp2565
a(V2015-07-05 13:21:48+00:00
p2566
F0.02
tp2567
a(V2015-07-05 13:29:28+00:00
p2568
F0.01
tp2569
a(V2015-07-05 13:37:01+00:00
p2570
F0.02
tp2571
a(V2015-07-05 13:59:59+00:00
p2572
F0.01
tp2573
a(V2015-07-05 14:07:49+00:00
p2574
F0.02
tp2575
a(V2015-07-05 14:30:28+00:00
p2576
F0.01
tp2577
a(V2015-07-05 15:08:14+00:00
p2578
F0.02
tp2579
a(V2015-07-05 15:30:49+00:00
p2580
F0.01
tp2581
a(V2015-07-05 15:37:57+00:00
p2582
F0.02
tp2583
a(V2015-07-05 15:45:17+00:00
p2584
F0.01
tp2585
a(V2015-07-05 16:08:15+00:00
p2586
F0.02
tp2587
a(V2015-07-05 16:16:05+00:00
p2588
F0.01
tp2589
a(V2015-07-05 16:46:14+00:00
p2590
F0.02
tp2591
a(V2015-07-05 17:09:00+00:00
p2592
F0.01
tp2593
a(V2015-07-05 17:31:49+00:00
p2594
F0.02
tp2595
a(V2015-07-05 17:39:14+00:00
p2596
F0.01
tp2597
a(V2015-07-05 18:33:12+00:00
p2598
F0.02
tp2599
a(V2015-07-05 19:47:58+00:00
p2600
F0.01
tp2601
a(V2015-07-05 19:55:34+00:00
p2602
F0.02
tp2603
a(V2015-07-05 20:03:06+00:00
p2604
F0.01
tp2605
a(V2015-07-05 20:25:21+00:00
p2606
F0.02
tp2607
a(V2015-07-05 20:55:41+00:00
p2608
F0.01
tp2609
a(V2015-07-05 21:03:14+00:00
p2610
F0.02
tp2611
a(V2015-07-05 21:18:25+00:00
p2612
F0.01
tp2613
a(V2015-07-05 21:41:00+00:00
p2614
F0.02
tp2615
a(V2015-07-05 22:04:30+00:00
p2616
F0.01
tp2617
a(V2015-07-05 22:19:37+00:00
p2618
F0.02
tp2619
a(V2015-07-05 23:20:41+00:00
p2620
F0.01
tp2621
a(V2015-07-05 23:28:15+00:00
p2622
F0.02
tp2623
a(V2015-07-05 23:36:12+00:00
p2624
F0.01
tp2625
a(V2015-07-06 00:07:13+00:00
p2626
F0.02
tp2627
a(V2015-07-06 00:31:52+00:00
p2628
F0.01
tp2629
a(V2015-07-06 01:12:56+00:00
p2630
F0.02
tp2631
a(V2015-07-06 01:20:53+00:00
p2632
F0.01
tp2633
a(V2015-07-06 01:37:12+00:00
p2634
F0.02
tp2635
a(V2015-07-06 01:45:04+00:00
p2636
F0.01
tp2637
a(V2015-07-06 02:01:02+00:00
p2638
F0.02
tp2639
a(V2015-07-06 02:09:02+00:00
p2640
F0.01
tp2641
a(V2015-07-06 02:24:36+00:00
p2642
F0.02
tp2643
a(V2015-07-06 02:32:52+00:00
p2644
F0.01
tp2645
a(V2015-07-06 03:13:31+00:00
p2646
F0.02
tp2647
a(V2015-07-06 04:00:30+00:00
p2648
F0.01
tp2649
a(V2015-07-06 04:08:07+00:00
p2650
F0.02
tp2651
a(V2015-07-06 04:24:21+00:00
p2652
F0.01
tp2653
a(V2015-07-06 04:39:51+00:00
p2654
F0.02
tp2655
a(V2015-07-06 05:02:20+00:00
p2656
F0.01
tp2657
a(V2015-07-06 05:26:00+00:00
p2658
F0.02
tp2659
a(V2015-07-06 05:34:05+00:00
p2660
F0.01
tp2661
a(V2015-07-06 05:57:45+00:00
p2662
F0.02
tp2663
a(V2015-07-06 06:44:05+00:00
p2664
F0.01
tp2665
a(V2015-07-06 06:58:40+00:00
p2666
F0.02
tp2667
a(V2015-07-06 07:43:12+00:00
p2668
F0.01
tp2669
a(V2015-07-06 07:50:26+00:00
p2670
F0.02
tp2671
a(V2015-07-06 08:37:17+00:00
p2672
F0.01
tp2673
a(V2015-07-06 09:08:22+00:00
p2674
F0.02
tp2675
a(V2015-07-06 09:17:01+00:00
p2676
F0.01
tp2677
a(V2015-07-06 09:33:07+00:00
p2678
F0.02
tp2679
a(V2015-07-06 09:48:43+00:00
p2680
F0.01
tp2681
a(V2015-07-06 09:56:20+00:00
p2682
F0.02
tp2683
a(V2015-07-06 10:11:37+00:00
p2684
F0.01
tp2685
a(V2015-07-06 10:34:44+00:00
p2686
F0.02
tp2687
a(V2015-07-06 11:37:48+00:00
p2688
F0.01
tp2689
a(V2015-07-06 11:45:26+00:00
p2690
F0.02
tp2691
a(V2015-07-06 11:53:26+00:00
p2692
F0.01
tp2693
a(V2015-07-06 12:09:04+00:00
p2694
F0.02
tp2695
a(V2015-07-06 12:32:05+00:00
p2696
F0.01
tp2697
a(V2015-07-06 12:40:01+00:00
p2698
F0.02
tp2699
a(V2015-07-06 12:55:33+00:00
p2700
F0.01
tp2701
a(V2015-07-06 13:03:31+00:00
p2702
F0.02
tp2703
a(V2015-07-06 14:07:02+00:00
p2704
F0.01
tp2705
a(V2015-07-06 14:37:06+00:00
p2706
F0.02
tp2707
a(V2015-07-06 15:12:13+00:00
p2708
F0.01
tp2709
a(V2015-07-06 15:20:27+00:00
p2710
F0.02
tp2711
a(V2015-07-06 15:47:07+00:00
p2712
F0.01
tp2713
a(V2015-07-06 16:00:16+00:00
p2714
F0.02
tp2715
a(V2015-07-06 16:33:52+00:00
p2716
F0.01
tp2717
a(V2015-07-06 16:50:29+00:00
p2718
F0.02
tp2719
a(V2015-07-06 17:06:47+00:00
p2720
F0.01
tp2721
a(V2015-07-06 17:15:23+00:00
p2722
F0.02
tp2723
a(V2015-07-06 17:23:48+00:00
p2724
F0.01
tp2725
a(V2015-07-06 17:32:22+00:00
p2726
F0.02
tp2727
a(V2015-07-06 18:05:23+00:00
p2728
F0.01
tp2729
a(V2015-07-06 18:13:33+00:00
p2730
F0.02
tp2731
a(V2015-07-06 18:21:50+00:00
p2732
F0.01
tp2733
a(V2015-07-06 18:38:30+00:00
p2734
F0.02
tp2735
a(V2015-07-06 18:47:01+00:00
p2736
F0.01
tp2737
a(V2015-07-06 19:20:32+00:00
p2738
F0.02
tp2739
a(V2015-07-06 19:51:57+00:00
p2740
F0.01
tp2741
a(V2015-07-06 20:07:38+00:00
p2742
F0.02
tp2743
a(V2015-07-06 20:15:49+00:00
p2744
F0.01
tp2745
a(V2015-07-06 20:56:25+00:00
p2746
F0.02
tp2747
a(V2015-07-06 21:04:44+00:00
p2748
F0.01
tp2749
a(V2015-07-06 21:20:51+00:00
p2750
F0.02
tp2751
a(V2015-07-06 21:29:02+00:00
p2752
F0.01
tp2753
a(V2015-07-06 21:44:31+00:00
p2754
F0.02
tp2755
a(V2015-07-06 22:00:24+00:00
p2756
F0.01
tp2757
a(V2015-07-06 22:25:13+00:00
p2758
F0.02
tp2759
a(V2015-07-06 22:48:26+00:00
p2760
F0.01
tp2761
a(V2015-07-06 22:56:24+00:00
p2762
F0.02
tp2763
a(V2015-07-06 23:37:33+00:00
p2764
F0.01
tp2765
a(V2015-07-06 23:45:46+00:00
p2766
F0.02
tp2767
a(V2015-07-07 00:09:53+00:00
p2768
F0.01
tp2769
a(V2015-07-07 00:52:16+00:00
p2770
F0.02
tp2771
a(V2015-07-07 01:00:15+00:00
p2772
F0.01
tp2773
a(V2015-07-07 01:08:32+00:00
p2774
F0.02
tp2775
a(V2015-07-07 01:16:48+00:00
p2776
F0.01
tp2777
a(V2015-07-07 01:25:14+00:00
p2778
F0.02
tp2779
a(V2015-07-07 01:42:31+00:00
p2780
F0.01
tp2781
a(V2015-07-07 01:50:46+00:00
p2782
F0.02
tp2783
a(V2015-07-07 02:41:30+00:00
p2784
F0.01
tp2785
a(V2015-07-07 02:49:54+00:00
p2786
F0.02
tp2787
a(V2015-07-07 03:39:03+00:00
p2788
F0.01
tp2789
a(V2015-07-07 03:55:23+00:00
p2790
F0.02
tp2791
a(V2015-07-07 04:35:15+00:00
p2792
F0.01
tp2793
a(V2015-07-07 04:51:10+00:00
p2794
F0.02
tp2795
a(V2015-07-07 05:23:43+00:00
p2796
F0.01
tp2797
a(V2015-07-07 05:39:34+00:00
p2798
F0.02
tp2799
a(V2015-07-07 05:55:26+00:00
p2800
F0.01
tp2801
a(V2015-07-07 06:26:50+00:00
p2802
F0.02
tp2803
a(V2015-07-07 06:42:10+00:00
p2804
F0.01
tp2805
a(V2015-07-07 06:57:41+00:00
p2806
F0.02
tp2807
a(V2015-07-07 07:53:01+00:00
p2808
F0.01
tp2809
a(V2015-07-07 08:25:12+00:00
p2810
F0.02
tp2811
a(V2015-07-07 09:04:39+00:00
p2812
F0.01
tp2813
a(V2015-07-07 09:28:03+00:00
p2814
F0.02
tp2815
a(V2015-07-07 09:35:37+00:00
p2816
F0.01
tp2817
a(V2015-07-07 09:43:14+00:00
p2818
F0.02
tp2819
a(V2015-07-07 10:14:19+00:00
p2820
F0.01
tp2821
a(V2015-07-07 10:36:54+00:00
p2822
F0.02
tp2823
a(V2015-07-07 11:08:05+00:00
p2824
F0.01
tp2825
a(V2015-07-07 11:31:57+00:00
p2826
F0.02
tp2827
a(V2015-07-07 12:34:19+00:00
p2828
F0.01
tp2829
a(V2015-07-07 12:50:26+00:00
p2830
F0.02
tp2831
a(V2015-07-07 13:54:34+00:00
p2832
F0.01
tp2833
a(V2015-07-07 14:34:37+00:00
p2834
F0.02
tp2835
a(V2015-07-07 15:07:00+00:00
p2836
F0.01
tp2837
a(V2015-07-07 15:15:00+00:00
p2838
F0.02
tp2839
a(V2015-07-07 15:31:54+00:00
p2840
F0.01
tp2841
a(V2015-07-07 15:40:01+00:00
p2842
F0.02
tp2843
a(V2015-07-07 15:56:22+00:00
p2844
F0.01
tp2845
a(V2015-07-07 16:37:13+00:00
p2846
F0.02
tp2847
a(V2015-07-07 17:52:55+00:00
p2848
F0.01
tp2849
a(V2015-07-07 18:17:59+00:00
p2850
F0.02
tp2851
a(V2015-07-07 18:26:11+00:00
p2852
F0.01
tp2853
a(V2015-07-07 18:43:47+00:00
p2854
F0.02
tp2855
a(V2015-07-07 18:53:20+00:00
p2856
F0.01
tp2857
a(V2015-07-07 19:02:13+00:00
p2858
F0.02
tp2859
a(V2015-07-07 19:36:43+00:00
p2860
F0.01
tp2861
a(V2015-07-07 19:45:03+00:00
p2862
F0.02
tp2863
a(V2015-07-07 20:19:05+00:00
p2864
F0.01
tp2865
a(V2015-07-07 20:36:20+00:00
p2866
F0.02
tp2867
a(V2015-07-07 21:53:17+00:00
p2868
F0.01
tp2869
a(V2015-07-07 22:10:00+00:00
p2870
F0.02
tp2871
a(V2015-07-07 22:44:12+00:00
p2872
F0.01
tp2873
a(V2015-07-07 22:52:22+00:00
p2874
F0.02
tp2875
a(V2015-07-07 23:00:13+00:00
p2876
F0.01
tp2877
a(V2015-07-07 23:16:47+00:00
p2878
F0.02
tp2879
a(V2015-07-07 23:33:09+00:00
p2880
F0.01
tp2881
a(V2015-07-07 23:49:29+00:00
p2882
F0.02
tp2883
a(V2015-07-08 00:39:55+00:00
p2884
F0.01
tp2885
a(V2015-07-08 00:56:32+00:00
p2886
F0.02
tp2887
a(V2015-07-08 01:37:39+00:00
p2888
F0.01
tp2889
a(V2015-07-08 02:02:25+00:00
p2890
F0.02
tp2891
a(V2015-07-08 02:19:14+00:00
p2892
F0.01
tp2893
a(V2015-07-08 02:52:45+00:00
p2894
F0.02
tp2895
a(V2015-07-08 03:42:07+00:00
p2896
F0.01
tp2897
a(V2015-07-08 03:49:59+00:00
p2898
F0.02
tp2899
a(V2015-07-08 04:05:29+00:00
p2900
F0.01
tp2901
a(V2015-07-08 04:13:18+00:00
p2902
F0.02
tp2903
a(V2015-07-08 04:29:01+00:00
p2904
F0.01
tp2905
a(V2015-07-08 04:44:57+00:00
p2906
F0.02
tp2907
a(V2015-07-08 05:25:33+00:00
p2908
F0.01
tp2909
a(V2015-07-08 05:57:29+00:00
p2910
F0.02
tp2911
a(V2015-07-08 06:05:29+00:00
p2912
F0.01
tp2913
a(V2015-07-08 06:21:31+00:00
p2914
F0.02
tp2915
a(V2015-07-08 06:29:44+00:00
p2916
F0.01
tp2917
a(V2015-07-08 06:45:39+00:00
p2918
F0.02
tp2919
a(V2015-07-08 07:08:47+00:00
p2920
F0.01
tp2921
a(V2015-07-08 07:16:47+00:00
p2922
F0.02
tp2923
a(V2015-07-08 07:24:49+00:00
p2924
F0.01
tp2925
a(V2015-07-08 07:32:58+00:00
p2926
F0.02
tp2927
a(V2015-07-08 08:20:27+00:00
p2928
F0.01
tp2929
a(V2015-07-08 08:51:34+00:00
p2930
F0.02
tp2931
a(V2015-07-08 08:59:19+00:00
p2932
F0.01
tp2933
a(V2015-07-08 09:07:19+00:00
p2934
F0.02
tp2935
a(V2015-07-08 09:30:37+00:00
p2936
F0.01
tp2937
a(V2015-07-08 09:38:30+00:00
p2938
F0.02
tp2939
a(V2015-07-08 09:46:27+00:00
p2940
F0.01
tp2941
a(V2015-07-08 10:02:11+00:00
p2942
F0.02
tp2943
a(V2015-07-08 10:26:10+00:00
p2944
F0.01
tp2945
a(V2015-07-08 10:49:29+00:00
p2946
F0.02
tp2947
a(V2015-07-08 11:21:48+00:00
p2948
F0.01
tp2949
a(V2015-07-08 11:45:26+00:00
p2950
F0.02
tp2951
a(V2015-07-08 12:17:48+00:00
p2952
F0.01
tp2953
a(V2015-07-08 12:26:21+00:00
p2954
F0.02
tp2955
a(V2015-07-08 12:51:23+00:00
p2956
F0.01
tp2957
a(V2015-07-08 13:25:07+00:00
p2958
F0.02
tp2959
a(V2015-07-08 13:33:17+00:00
p2960
F0.01
tp2961
a(V2015-07-08 14:07:26+00:00
p2962
F0.02
tp2963
a(V2015-07-08 14:24:24+00:00
p2964
F0.01
tp2965
a(V2015-07-08 14:41:20+00:00
p2966
F0.02
tp2967
a(V2015-07-08 15:15:08+00:00
p2968
F0.01
tp2969
a(V2015-07-08 15:24:01+00:00
p2970
F0.02
tp2971
a(V2015-07-08 15:41:06+00:00
p2972
F0.01
tp2973
a(V2015-07-08 15:58:44+00:00
p2974
F0.02
tp2975
a(V2015-07-08 16:42:21+00:00
p2976
F0.01
tp2977
a(V2015-07-08 16:51:11+00:00
p2978
F0.02
tp2979
a(V2015-07-08 17:08:35+00:00
p2980
F0.01
tp2981
a(V2015-07-08 17:34:17+00:00
p2982
F0.02
tp2983
a(V2015-07-08 18:09:47+00:00
p2984
F0.01
tp2985
a(V2015-07-08 18:35:33+00:00
p2986
F0.02
tp2987
a(V2015-07-08 19:28:24+00:00
p2988
F0.01
tp2989
a(V2015-07-08 19:46:19+00:00
p2990
F0.02
tp2991
a(V2015-07-08 20:13:03+00:00
p2992
F0.01
tp2993
a(V2015-07-08 20:30:06+00:00
p2994
F0.02
tp2995
a(V2015-07-08 21:22:13+00:00
p2996
F0.01
tp2997
a(V2015-07-08 21:39:12+00:00
p2998
F0.02
tp2999
a(V2015-07-08 21:47:47+00:00
p3000
F0.01
tp3001
a(V2015-07-08 22:04:45+00:00
p3002
F0.02
tp3003
a(V2015-07-08 23:29:57+00:00
p3004
F0.01
tp3005
a(V2015-07-09 00:39:26+00:00
p3006
F0.02
tp3007
a(V2015-07-09 00:45:30+00:00
p3008
F0.01
tp3009
a(V2015-07-09 01:00:28+00:00
p3010
F0.02
tp3011
a(V2015-07-09 01:35:05+00:00
p3012
F0.01
tp3013
a(V2015-07-09 01:51:55+00:00
p3014
F0.02
tp3015
a(V2015-07-09 02:41:00+00:00
p3016
F0.01
tp3017
a(V2015-07-09 03:00:38+00:00
p3018
F0.02
tp3019
a(V2015-07-09 03:40:34+00:00
p3020
F0.01
tp3021
a(V2015-07-09 03:52:41+00:00
p3022
F0.02
tp3023
a(V2015-07-09 06:10:31+00:00
p3024
F0.01
tp3025
a(V2015-07-09 06:18:35+00:00
p3026
F0.02
tp3027
a(V2015-07-09 06:58:43+00:00
p3028
F0.01
tp3029
a(V2015-07-09 07:14:45+00:00
p3030
F0.02
tp3031
a(V2015-07-09 07:53:57+00:00
p3032
F0.01
tp3033
a(V2015-07-09 08:26:20+00:00
p3034
F0.02
tp3035
a(V2015-07-09 08:41:53+00:00
p3036
F0.01
tp3037
a(V2015-07-09 08:49:46+00:00
p3038
F0.02
tp3039
a(V2015-07-09 09:13:40+00:00
p3040
F0.01
tp3041
a(V2015-07-09 09:45:25+00:00
p3042
F0.02
tp3043
a(V2015-07-09 10:16:34+00:00
p3044
F0.01
tp3045
a(V2015-07-09 10:31:53+00:00
p3046
F0.02
tp3047
a(V2015-07-09 10:47:19+00:00
p3048
F0.01
tp3049
a(V2015-07-09 10:54:52+00:00
p3050
F0.02
tp3051
a(V2015-07-09 11:18:10+00:00
p3052
F0.01
tp3053
a(V2015-07-09 11:41:19+00:00
p3054
F0.02
tp3055
a(V2015-07-09 12:12:55+00:00
p3056
F0.01
tp3057
a(V2015-07-09 12:21:02+00:00
p3058
F0.02
tp3059
a(V2015-07-09 12:37:29+00:00
p3060
F0.01
tp3061
a(V2015-07-09 12:45:47+00:00
p3062
F0.02
tp3063
a(V2015-07-09 13:35:12+00:00
p3064
F0.01
tp3065
a(V2015-07-09 14:50:39+00:00
p3066
F0.02
tp3067
a(V2015-07-09 14:58:59+00:00
p3068
F0.01
tp3069
a(V2015-07-09 15:23:46+00:00
p3070
F0.02
tp3071
a(V2015-07-09 15:40:05+00:00
p3072
F0.01
tp3073
a(V2015-07-09 16:30:17+00:00
p3074
F0.02
tp3075
a(V2015-07-09 17:03:59+00:00
p3076
F0.01
tp3077
a(V2015-07-09 17:12:31+00:00
p3078
F0.02
tp3079
a(V2015-07-09 18:23:17+00:00
p3080
F0.01
tp3081
a(V2015-07-09 18:40:21+00:00
p3082
F0.02
tp3083
a(V2015-07-09 19:19:19+00:00
p3084
F0.01
tp3085
a(V2015-07-09 19:36:10+00:00
p3086
F0.02
tp3087
a(V2015-07-09 21:19:08+00:00
p3088
F0.01
tp3089
a(V2015-07-09 21:37:02+00:00
p3090
F0.02
tp3091
a(V2015-07-09 21:42:50+00:00
p3092
F0.01
tp3093
a(V2015-07-09 21:59:45+00:00
p3094
F0.02
tp3095
a(V2015-07-09 22:07:50+00:00
p3096
F0.01
tp3097
a(V2015-07-09 22:40:07+00:00
p3098
F0.02
tp3099
a(V2015-07-09 22:48:16+00:00
p3100
F0.01
tp3101
a(V2015-07-09 22:56:32+00:00
p3102
F0.02
tp3103
a(V2015-07-09 23:04:41+00:00
p3104
F0.01
tp3105
a(V2015-07-09 23:13:05+00:00
p3106
F0.02
tp3107
a(V2015-07-09 23:21:15+00:00
p3108
F0.01
tp3109
a(V2015-07-09 23:38:16+00:00
p3110
F0.02
tp3111
a(V2015-07-10 00:37:25+00:00
p3112
F0.01
tp3113
a(V2015-07-10 00:46:10+00:00
p3114
F0.02
tp3115
a(V2015-07-10 00:54:31+00:00
p3116
F0.01
tp3117
a(V2015-07-10 01:11:52+00:00
p3118
F0.02
tp3119
a(V2015-07-10 01:45:22+00:00
p3120
F0.01
tp3121
a(V2015-07-10 01:53:34+00:00
p3122
F0.02
tp3123
a(V2015-07-10 02:01:43+00:00
p3124
F0.01
tp3125
a(V2015-07-10 02:09:49+00:00
p3126
F0.02
tp3127
a(V2015-07-10 02:26:36+00:00
p3128
F0.01
tp3129
a(V2015-07-10 02:34:46+00:00
p3130
F0.02
tp3131
a(V2015-07-10 02:50:52+00:00
p3132
F0.01
tp3133
a(V2015-07-10 03:06:59+00:00
p3134
F0.02
tp3135
a(V2015-07-10 03:31:11+00:00
p3136
F0.01
tp3137
a(V2015-07-10 04:02:53+00:00
p3138
F0.02
tp3139
a(V2015-07-10 04:35:03+00:00
p3140
F0.01
tp3141
a(V2015-07-10 04:58:28+00:00
p3142
F0.02
tp3143
a(V2015-07-10 05:15:01+00:00
p3144
F0.01
tp3145
a(V2015-07-10 05:31:12+00:00
p3146
F0.02
tp3147
a(V2015-07-10 05:46:24+00:00
p3148
F0.01
tp3149
a(V2015-07-10 06:01:51+00:00
p3150
F0.02
tp3151
a(V2015-07-10 06:33:31+00:00
p3152
F0.01
tp3153
a(V2015-07-10 06:41:21+00:00
p3154
F0.02
tp3155
a(V2015-07-10 06:48:58+00:00
p3156
F0.01
tp3157
a(V2015-07-10 07:01:56+00:00
p3158
F0.02
tp3159
a(V2015-07-10 07:25:55+00:00
p3160
F0.01
tp3161
a(V2015-07-10 07:33:58+00:00
p3162
F0.02
tp3163
a(V2015-07-10 08:10:53+00:00
p3164
F0.01
tp3165
a(V2015-07-10 08:26:59+00:00
p3166
F0.02
tp3167
a(V2015-07-10 09:52:54+00:00
p3168
F0.01
tp3169
a(V2015-07-10 10:06:06+00:00
p3170
F0.02
tp3171
a(V2015-07-10 10:21:51+00:00
p3172
F0.01
tp3173
a(V2015-07-10 10:53:10+00:00
p3174
F0.02
tp3175
a(V2015-07-10 11:05:33+00:00
p3176
F0.01
tp3177
a(V2015-07-10 11:21:23+00:00
p3178
F0.02
tp3179
a(V2015-07-10 11:29:18+00:00
p3180
F0.01
tp3181
a(V2015-07-10 11:37:36+00:00
p3182
F0.02
tp3183
a(V2015-07-10 11:54:08+00:00
p3184
F0.01
tp3185
a(V2015-07-10 12:07:42+00:00
p3186
F0.02
tp3187
a(V2015-07-10 12:15:44+00:00
p3188
F0.01
tp3189
a(V2015-07-10 12:31:47+00:00
p3190
F0.02
tp3191
a(V2015-07-10 12:55:57+00:00
p3192
F0.01
tp3193
a(V2015-07-10 13:03:53+00:00
p3194
F0.02
tp3195
a(V2015-07-10 13:20:17+00:00
p3196
F0.01
tp3197
a(V2015-07-10 13:28:21+00:00
p3198
F0.02
tp3199
a(V2015-07-10 14:05:17+00:00
p3200
F0.01
tp3201
a(V2015-07-10 14:21:25+00:00
p3202
F0.02
tp3203
a(V2015-07-10 14:29:22+00:00
p3204
F0.01
tp3205
a(V2015-07-10 14:45:45+00:00
p3206
F0.02
tp3207
a(V2015-07-10 14:54:11+00:00
p3208
F0.01
tp3209
a(V2015-07-10 15:41:09+00:00
p3210
F0.02
tp3211
a(V2015-07-10 15:49:24+00:00
p3212
F0.01
tp3213
a(V2015-07-10 16:19:42+00:00
p3214
F0.02
tp3215
a(V2015-07-10 17:02:07+00:00
p3216
F0.01
tp3217
a(V2015-07-10 17:15:51+00:00
p3218
F0.02
tp3219
a(V2015-07-10 17:32:13+00:00
p3220
F0.01
tp3221
a(V2015-07-10 17:48:46+00:00
p3222
F0.02
tp3223
a(V2015-07-10 17:56:33+00:00
p3224
F0.01
tp3225
a(V2015-07-10 18:18:07+00:00
p3226
F0.02
tp3227
a(V2015-07-10 19:22:58+00:00
p3228
F0.01
tp3229
a(V2015-07-10 19:38:55+00:00
p3230
F0.02
tp3231
a(V2015-07-10 19:55:04+00:00
p3232
F0.01
tp3233
a(V2015-07-10 20:03:07+00:00
p3234
F0.02
tp3235
a(V2015-07-10 20:08:28+00:00
p3236
F0.01
tp3237
a(V2015-07-10 20:13:45+00:00
p3238
F0.02
tp3239
a(V2015-07-10 20:37:35+00:00
p3240
F0.01
tp3241
a(V2015-07-10 20:45:23+00:00
p3242
F0.02
tp3243
a(V2015-07-10 20:53:33+00:00
p3244
F0.01
tp3245
a(V2015-07-10 21:09:29+00:00
p3246
F0.02
tp3247
a(V2015-07-10 21:41:04+00:00
p3248
F0.01
tp3249
a(V2015-07-10 22:12:50+00:00
p3250
F0.02
tp3251
a(V2015-07-10 22:53:23+00:00
p3252
F0.01
tp3253
a(V2015-07-10 23:01:01+00:00
p3254
F0.02
tp3255
a(V2015-07-10 23:08:37+00:00
p3256
F0.01
tp3257
a(V2015-07-10 23:17:18+00:00
p3258
F0.02
tp3259
a(V2015-07-10 23:49:05+00:00
p3260
F0.01
tp3261
a(V2015-07-11 00:10:06+00:00
p3262
F0.02
tp3263
a(V2015-07-11 00:24:14+00:00
p3264
F0.01
tp3265
a(V2015-07-11 00:51:05+00:00
p3266
F0.02
tp3267
a(V2015-07-11 01:04:59+00:00
p3268
F0.01
tp3269
a(V2015-07-11 01:47:56+00:00
p3270
F0.02
tp3271
a(V2015-07-11 02:27:59+00:00
p3272
F0.01
tp3273
a(V2015-07-11 03:02:43+00:00
p3274
F0.02
tp3275
a(V2015-07-11 03:08:17+00:00
p3276
F0.01
tp3277
a(V2015-07-11 03:42:46+00:00
p3278
F0.02
tp3279
a(V2015-07-11 03:47:46+00:00
p3280
F0.01
tp3281
a(V2015-07-11 03:55:22+00:00
p3282
F0.02
tp3283
a(V2015-07-11 04:00:20+00:00
p3284
F0.01
tp3285
a(V2015-07-11 04:08:06+00:00
p3286
F0.02
tp3287
a(V2015-07-11 04:33:56+00:00
p3288
F0.01
tp3289
a(V2015-07-11 04:46:31+00:00
p3290
F0.02
tp3291
a(V2015-07-11 05:12:07+00:00
p3292
F0.01
tp3293
a(V2015-07-11 05:30:23+00:00
p3294
F0.02
tp3295
a(V2015-07-11 05:37:56+00:00
p3296
F0.01
tp3297
a(V2015-07-11 05:55:18+00:00
p3298
F0.02
tp3299
a(V2015-07-11 06:08:20+00:00
p3300
F0.01
tp3301
a(V2015-07-11 06:41:58+00:00
p3302
F0.02
tp3303
a(V2015-07-11 06:49:38+00:00
p3304
F0.01
tp3305
a(V2015-07-11 06:57:13+00:00
p3306
F0.02
tp3307
a(V2015-07-11 07:05:00+00:00
p3308
F0.01
tp3309
a(V2015-07-11 07:20:35+00:00
p3310
F0.02
tp3311
a(V2015-07-11 07:36:12+00:00
p3312
F0.01
tp3313
a(V2015-07-11 07:43:57+00:00
p3314
F0.02
tp3315
a(V2015-07-11 07:59:08+00:00
p3316
F0.01
tp3317
a(V2015-07-11 08:38:09+00:00
p3318
F0.02
tp3319
a(V2015-07-11 08:45:53+00:00
p3320
F0.01
tp3321
a(V2015-07-11 09:00:58+00:00
p3322
F0.02
tp3323
a(V2015-07-11 09:08:48+00:00
p3324
F0.01
tp3325
a(V2015-07-11 09:32:03+00:00
p3326
F0.02
tp3327
a(V2015-07-11 09:39:39+00:00
p3328
F0.01
tp3329
a(V2015-07-11 09:54:37+00:00
p3330
F0.02
tp3331
a(V2015-07-11 10:16:53+00:00
p3332
F0.01
tp3333
a(V2015-07-11 10:31:48+00:00
p3334
F0.02
tp3335
a(V2015-07-11 11:17:13+00:00
p3336
F0.01
tp3337
a(V2015-07-11 11:32:10+00:00
p3338
F0.02
tp3339
a(V2015-07-11 12:10:13+00:00
p3340
F0.01
tp3341
a(V2015-07-11 12:33:09+00:00
p3342
F0.02
tp3343
a(V2015-07-11 12:48:33+00:00
p3344
F0.01
tp3345
a(V2015-07-11 12:56:19+00:00
p3346
F0.02
tp3347
a(V2015-07-11 13:19:49+00:00
p3348
F0.01
tp3349
a(V2015-07-11 13:27:30+00:00
p3350
F0.02
tp3351
a(V2015-07-11 14:05:16+00:00
p3352
F0.01
tp3353
a(V2015-07-11 14:27:14+00:00
p3354
F0.02
tp3355
a(V2015-07-11 15:04:53+00:00
p3356
F0.01
tp3357
a(V2015-07-11 15:27:57+00:00
p3358
F0.02
tp3359
a(V2015-07-11 16:22:43+00:00
p3360
F0.01
tp3361
a(V2015-07-11 16:38:14+00:00
p3362
F0.02
tp3363
a(V2015-07-11 17:48:25+00:00
p3364
F0.01
tp3365
a(V2015-07-11 17:56:06+00:00
p3366
F0.02
tp3367
a(V2015-07-11 18:03:55+00:00
p3368
F0.01
tp3369
a(V2015-07-11 18:19:26+00:00
p3370
F0.02
tp3371
a(V2015-07-11 18:42:28+00:00
p3372
F0.01
tp3373
a(V2015-07-11 18:57:53+00:00
p3374
F0.02
tp3375
a(V2015-07-11 19:43:59+00:00
p3376
F0.01
tp3377
a(V2015-07-11 20:14:43+00:00
p3378
F0.02
tp3379
a(V2015-07-11 20:51:49+00:00
p3380
F0.01
tp3381
a(V2015-07-11 21:07:09+00:00
p3382
F0.02
tp3383
a(V2015-07-11 21:15:08+00:00
p3384
F0.01
tp3385
a(V2015-07-11 21:37:36+00:00
p3386
F0.02
tp3387
a(V2015-07-11 22:07:28+00:00
p3388
F0.01
tp3389
a(V2015-07-11 22:15:07+00:00
p3390
F0.02
tp3391
a(V2015-07-11 22:30:02+00:00
p3392
F0.01
tp3393
a(V2015-07-11 22:37:33+00:00
p3394
F0.02
tp3395
a(V2015-07-11 22:45:15+00:00
p3396
F0.01
tp3397
a(V2015-07-11 22:53:04+00:00
p3398
F0.02
tp3399
a(V2015-07-11 23:15:43+00:00
p3400
F0.01
tp3401
a(V2015-07-11 23:30:45+00:00
p3402
F0.02
tp3403
a(V2015-07-12 00:08:39+00:00
p3404
F0.01
tp3405
a(V2015-07-12 00:25:13+00:00
p3406
F0.02
tp3407
a(V2015-07-12 00:33:09+00:00
p3408
F0.01
tp3409
a(V2015-07-12 00:41:15+00:00
p3410
F0.02
tp3411
a(V2015-07-12 00:49:21+00:00
p3412
F0.01
tp3413
a(V2015-07-12 00:57:14+00:00
p3414
F0.02
tp3415
a(V2015-07-12 01:06:29+00:00
p3416
F0.01
tp3417
a(V2015-07-12 01:31:06+00:00
p3418
F0.02
tp3419
a(V2015-07-12 01:39:04+00:00
p3420
F0.01
tp3421
a(V2015-07-12 01:46:46+00:00
p3422
F0.02
tp3423
a(V2015-07-12 02:17:53+00:00
p3424
F0.01
tp3425
a(V2015-07-12 02:25:28+00:00
p3426
F0.02
tp3427
a(V2015-07-12 03:03:32+00:00
p3428
F0.01
tp3429
a(V2015-07-12 03:34:02+00:00
p3430
F0.02
tp3431
a(V2015-07-12 03:41:38+00:00
p3432
F0.01
tp3433
a(V2015-07-12 03:49:24+00:00
p3434
F0.02
tp3435
a(V2015-07-12 04:27:57+00:00
p3436
F0.01
tp3437
a(V2015-07-12 04:35:29+00:00
p3438
F0.02
tp3439
a(V2015-07-12 04:43:00+00:00
p3440
F0.01
tp3441
a(V2015-07-12 04:50:32+00:00
p3442
F0.02
tp3443
a(V2015-07-12 05:53:42+00:00
p3444
F0.01
tp3445
a(V2015-07-12 06:16:05+00:00
p3446
F0.02
tp3447
a(V2015-07-12 06:23:43+00:00
p3448
F0.01
tp3449
a(V2015-07-12 06:39:42+00:00
p3450
F0.02
tp3451
a(V2015-07-12 06:54:38+00:00
p3452
F0.01
tp3453
a(V2015-07-12 07:10:07+00:00
p3454
F0.02
tp3455
a(V2015-07-12 07:17:51+00:00
p3456
F0.01
tp3457
a(V2015-07-12 07:25:26+00:00
p3458
F0.02
tp3459
a(V2015-07-12 07:32:59+00:00
p3460
F0.01
tp3461
a(V2015-07-12 07:40:37+00:00
p3462
F0.02
tp3463
a(V2015-07-12 07:48:04+00:00
p3464
F0.01
tp3465
a(V2015-07-12 08:02:58+00:00
p3466
F0.02
tp3467
a(V2015-07-12 08:26:03+00:00
p3468
F0.01
tp3469
a(V2015-07-12 08:40:54+00:00
p3470
F0.02
tp3471
a(V2015-07-12 08:48:31+00:00
p3472
F0.01
tp3473
a(V2015-07-12 08:55:53+00:00
p3474
F0.02
tp3475
a(V2015-07-12 09:03:35+00:00
p3476
F0.01
tp3477
a(V2015-07-12 09:33:19+00:00
p3478
F0.02
tp3479
a(V2015-07-12 10:18:30+00:00
p3480
F0.01
tp3481
a(V2015-07-12 10:26:00+00:00
p3482
F0.02
tp3483
a(V2015-07-12 10:48:38+00:00
p3484
F0.01
tp3485
a(V2015-07-12 10:56:07+00:00
p3486
F0.02
tp3487
a(V2015-07-12 11:19:23+00:00
p3488
F0.01
tp3489
a(V2015-07-12 11:26:55+00:00
p3490
F0.02
tp3491
a(V2015-07-12 11:49:11+00:00
p3492
F0.01
tp3493
a(V2015-07-12 12:04:13+00:00
p3494
F0.02
tp3495
a(V2015-07-12 12:49:10+00:00
p3496
F0.01
tp3497
a(V2015-07-12 12:56:33+00:00
p3498
F0.02
tp3499
a(V2015-07-12 13:04:22+00:00
p3500
F0.01
tp3501
a(V2015-07-12 13:20:19+00:00
p3502
F0.02
tp3503
a(V2015-07-12 13:57:28+00:00
p3504
F0.01
tp3505
a(V2015-07-12 14:12:49+00:00
p3506
F0.02
tp3507
a(V2015-07-12 14:51:21+00:00
p3508
F0.01
tp3509
a(V2015-07-12 15:07:10+00:00
p3510
F0.02
tp3511
a(V2015-07-12 15:23:12+00:00
p3512
F0.01
tp3513
a(V2015-07-12 15:38:45+00:00
p3514
F0.02
tp3515
a(V2015-07-12 15:46:33+00:00
p3516
F0.01
tp3517
a(V2015-07-12 16:02:10+00:00
p3518
F0.02
tp3519
a(V2015-07-12 16:17:44+00:00
p3520
F0.01
tp3521
a(V2015-07-12 16:25:22+00:00
p3522
F0.02
tp3523
a(V2015-07-12 16:56:04+00:00
p3524
F0.01
tp3525
a(V2015-07-12 17:11:23+00:00
p3526
F0.02
tp3527
a(V2015-07-12 17:27:06+00:00
p3528
F0.01
tp3529
a(V2015-07-12 17:34:42+00:00
p3530
F0.02
tp3531
a(V2015-07-12 17:57:51+00:00
p3532
F0.01
tp3533
a(V2015-07-12 18:13:13+00:00
p3534
F0.02
tp3535
a(V2015-07-12 18:20:46+00:00
p3536
F0.01
tp3537
a(V2015-07-12 18:28:09+00:00
p3538
F0.02
tp3539
a(V2015-07-12 18:51:27+00:00
p3540
F0.01
tp3541
a(V2015-07-12 19:06:30+00:00
p3542
F0.02
tp3543
a(V2015-07-12 19:21:47+00:00
p3544
F0.01
tp3545
a(V2015-07-12 19:44:45+00:00
p3546
F0.02
tp3547
a(V2015-07-12 20:00:04+00:00
p3548
F0.01
tp3549
a(V2015-07-12 20:15:44+00:00
p3550
F0.02
tp3551
a(V2015-07-12 20:23:12+00:00
p3552
F0.01
tp3553
a(V2015-07-12 20:31:17+00:00
p3554
F0.02
tp3555
a(V2015-07-12 21:31:15+00:00
p3556
F0.01
tp3557
a(V2015-07-12 21:46:19+00:00
p3558
F0.02
tp3559
a(V2015-07-12 22:09:52+00:00
p3560
F0.01
tp3561
a(V2015-07-12 22:25:00+00:00
p3562
F0.02
tp3563
a(V2015-07-12 22:54:50+00:00
p3564
F0.01
tp3565
a(V2015-07-12 23:10:20+00:00
p3566
F0.02
tp3567
a(V2015-07-12 23:33:05+00:00
p3568
F0.01
tp3569
a(V2015-07-12 23:40:46+00:00
p3570
F0.02
tp3571
a(V2015-07-12 23:48:34+00:00
p3572
F0.01
tp3573
a(V2015-07-12 23:56:11+00:00
p3574
F0.02
tp3575
a(V2015-07-13 00:20:45+00:00
p3576
F0.01
tp3577
a(V2015-07-13 01:01:36+00:00
p3578
F0.02
tp3579
a(V2015-07-13 01:41:49+00:00
p3580
F0.01
tp3581
a(V2015-07-13 01:49:41+00:00
p3582
F0.02
tp3583
a(V2015-07-13 02:38:17+00:00
p3584
F0.01
tp3585
a(V2015-07-13 03:02:50+00:00
p3586
F0.02
tp3587
a(V2015-07-13 03:11:20+00:00
p3588
F0.01
tp3589
a(V2015-07-13 03:27:42+00:00
p3590
F0.02
tp3591
a(V2015-07-13 03:43:38+00:00
p3592
F0.01
tp3593
a(V2015-07-13 04:07:08+00:00
p3594
F0.02
tp3595
a(V2015-07-13 04:15:08+00:00
p3596
F0.01
tp3597
a(V2015-07-13 04:30:53+00:00
p3598
F0.02
tp3599
a(V2015-07-13 05:09:56+00:00
p3600
F0.01
tp3601
a(V2015-07-13 05:25:59+00:00
p3602
F0.02
tp3603
a(V2015-07-13 05:34:10+00:00
p3604
F0.01
tp3605
a(V2015-07-13 05:50:21+00:00
p3606
F0.02
tp3607
a(V2015-07-13 06:14:36+00:00
p3608
F0.01
tp3609
a(V2015-07-13 07:01:52+00:00
p3610
F0.02
tp3611
a(V2015-07-13 07:10:11+00:00
p3612
F0.01
tp3613
a(V2015-07-13 07:26:03+00:00
p3614
F0.02
tp3615
a(V2015-07-13 07:49:35+00:00
p3616
F0.01
tp3617
a(V2015-07-13 08:13:34+00:00
p3618
F0.02
tp3619
a(V2015-07-13 08:21:40+00:00
p3620
F0.01
tp3621
a(V2015-07-13 08:44:59+00:00
p3622
F0.02
tp3623
a(V2015-07-13 09:08:46+00:00
p3624
F0.01
tp3625
a(V2015-07-13 09:25:22+00:00
p3626
F0.02
tp3627
a(V2015-07-13 09:41:40+00:00
p3628
F0.01
tp3629
a(V2015-07-13 09:49:48+00:00
p3630
F0.02
tp3631
a(V2015-07-13 09:55:17+00:00
p3632
F0.0081
tp3633
a(V2015-07-13 09:57:45+00:00
p3634
F0.02
tp3635
a(V2015-07-13 10:03:00+00:00
p3636
F0.0081
tp3637
a(V2015-07-13 10:05:36+00:00
p3638
F0.02
tp3639
a(V2015-07-13 10:10:57+00:00
p3640
F0.0081
tp3641
a(V2015-07-13 10:13:31+00:00
p3642
F0.01
tp3643
a(V2015-07-13 10:18:58+00:00
p3644
F0.0081
tp3645
a(V2015-07-13 10:21:25+00:00
p3646
F0.02
tp3647
a(V2015-07-13 10:26:52+00:00
p3648
F0.0081
tp3649
a(V2015-07-13 10:29:28+00:00
p3650
F0.02
tp3651
a(V2015-07-13 10:34:45+00:00
p3652
F0.0081
tp3653
a(V2015-07-13 10:37:33+00:00
p3654
F0.02
tp3655
a(V2015-07-13 10:42:51+00:00
p3656
F0.0081
tp3657
a(V2015-07-13 10:45:27+00:00
p3658
F0.01
tp3659
a(V2015-07-13 10:50:47+00:00
p3660
F0.0081
tp3661
a(V2015-07-13 10:53:22+00:00
p3662
F0.01
tp3663
a(V2015-07-13 10:58:38+00:00
p3664
F0.0081
tp3665
a(V2015-07-13 11:01:08+00:00
p3666
F0.02
tp3667
a(V2015-07-13 11:06:51+00:00
p3668
F0.0081
tp3669
a(V2015-07-13 11:09:35+00:00
p3670
F0.01
tp3671
a(V2015-07-13 11:15:06+00:00
p3672
F0.0081
tp3673
a(V2015-07-13 11:17:48+00:00
p3674
F0.01
tp3675
a(V2015-07-13 11:23:27+00:00
p3676
F0.0081
tp3677
a(V2015-07-13 11:26:18+00:00
p3678
F0.02
tp3679
a(V2015-07-13 11:31:54+00:00
p3680
F0.0081
tp3681
a(V2015-07-13 11:34:33+00:00
p3682
F0.01
tp3683
a(V2015-07-13 11:40:08+00:00
p3684
F0.0081
tp3685
a(V2015-07-13 11:42:40+00:00
p3686
F0.01
tp3687
a(V2015-07-13 11:48:18+00:00
p3688
F0.0081
tp3689
a(V2015-07-13 11:50:53+00:00
p3690
F0.02
tp3691
a(V2015-07-13 12:23:20+00:00
p3692
F0.01
tp3693
a(V2015-07-13 12:55:17+00:00
p3694
F0.02
tp3695
a(V2015-07-13 13:03:44+00:00
p3696
F0.01
tp3697
a(V2015-07-13 13:21:27+00:00
p3698
F0.02
tp3699
a(V2015-07-13 13:29:55+00:00
p3700
F0.01
tp3701
a(V2015-07-13 13:54:47+00:00
p3702
F0.02
tp3703
a(V2015-07-13 14:37:06+00:00
p3704
F0.01
tp3705
a(V2015-07-13 14:45:58+00:00
p3706
F0.02
tp3707
a(V2015-07-13 15:47:18+00:00
p3708
F0.01
tp3709
a(V2015-07-13 15:56:05+00:00
p3710
F0.02
tp3711
a(V2015-07-13 16:04:48+00:00
p3712
F0.01
tp3713
a(V2015-07-13 16:32:44+00:00
p3714
F0.02
tp3715
a(V2015-07-13 17:43:15+00:00
p3716
F0.01
tp3717
a(V2015-07-13 18:08:59+00:00
p3718
F0.02
tp3719
a(V2015-07-13 18:17:54+00:00
p3720
F0.01
tp3721
a(V2015-07-13 18:35:18+00:00
p3722
F0.02
tp3723
a(V2015-07-13 19:45:38+00:00
p3724
F0.01
tp3725
a(V2015-07-13 20:02:26+00:00
p3726
F0.02
tp3727
a(V2015-07-13 20:19:49+00:00
p3728
F0.01
tp3729
a(V2015-07-13 20:28:06+00:00
p3730
F0.02
tp3731
a(V2015-07-13 20:45:19+00:00
p3732
F0.01
tp3733
a(V2015-07-13 21:11:27+00:00
p3734
F0.02
tp3735
a(V2015-07-13 21:20:16+00:00
p3736
F0.01
tp3737
a(V2015-07-13 21:54:18+00:00
p3738
F0.02
tp3739
a(V2015-07-13 22:31:52+00:00
p3740
F0.01
tp3741
a(V2015-07-13 23:36:07+00:00
p3742
F0.02
tp3743
a(V2015-07-13 23:44:49+00:00
p3744
F0.01
tp3745
a(V2015-07-14 00:22:43+00:00
p3746
F0.02
tp3747
a(V2015-07-14 00:39:08+00:00
p3748
F0.01
tp3749
a(V2015-07-14 00:57:45+00:00
p3750
F0.02
tp3751
a(V2015-07-14 01:11:53+00:00
p3752
F0.01
tp3753
a(V2015-07-14 01:37:05+00:00
p3754
F0.02
tp3755
a(V2015-07-14 01:45:16+00:00
p3756
F0.01
tp3757
a(V2015-07-14 02:09:17+00:00
p3758
F0.02
tp3759
a(V2015-07-14 02:17:28+00:00
p3760
F0.01
tp3761
a(V2015-07-14 02:46:18+00:00
p3762
F0.02
tp3763
a(V2015-07-14 02:59:56+00:00
p3764
F0.01
tp3765
a(V2015-07-14 03:19:24+00:00
p3766
F0.02
tp3767
a(V2015-07-14 03:24:50+00:00
p3768
F0.01
tp3769
a(V2015-07-14 03:32:42+00:00
p3770
F0.02
tp3771
a(V2015-07-14 03:56:44+00:00
p3772
F0.01
tp3773
a(V2015-07-14 04:09:49+00:00
p3774
F0.02
tp3775
a(V2015-07-14 04:17:40+00:00
p3776
F0.01
tp3777
a(V2015-07-14 04:31:13+00:00
p3778
F0.02
tp3779
a(V2015-07-14 04:36:30+00:00
p3780
F0.01
tp3781
a(V2015-07-14 04:44:28+00:00
p3782
F0.02
tp3783
a(V2015-07-14 05:14:56+00:00
p3784
F0.01
tp3785
a(V2015-07-14 05:37:06+00:00
p3786
F0.02
tp3787
a(V2015-07-14 05:55:40+00:00
p3788
F0.01
tp3789
a(V2015-07-14 06:03:35+00:00
p3790
F0.02
tp3791
a(V2015-07-14 06:57:11+00:00
p3792
F0.01
tp3793
a(V2015-07-14 07:13:27+00:00
p3794
F0.02
tp3795
a(V2015-07-14 07:45:50+00:00
p3796
F0.01
tp3797
a(V2015-07-14 08:27:04+00:00
p3798
F0.02
tp3799
a(V2015-07-14 09:06:06+00:00
p3800
F0.01
tp3801
a(V2015-07-14 09:13:55+00:00
p3802
F0.02
tp3803
a(V2015-07-14 09:21:50+00:00
p3804
F0.01
tp3805
a(V2015-07-14 09:37:55+00:00
p3806
F0.02
tp3807
a(V2015-07-14 10:24:02+00:00
p3808
F0.01
tp3809
a(V2015-07-14 10:31:51+00:00
p3810
F0.02
tp3811
a(V2015-07-14 11:27:16+00:00
p3812
F0.01
tp3813
a(V2015-07-14 11:42:42+00:00
p3814
F0.02
tp3815
a(V2015-07-14 11:50:34+00:00
p3816
F0.01
tp3817
a(V2015-07-14 12:06:37+00:00
p3818
F0.02
tp3819
a(V2015-07-14 12:14:34+00:00
p3820
F0.01
tp3821
a(V2015-07-14 12:45:25+00:00
p3822
F0.02
tp3823
a(V2015-07-14 13:26:09+00:00
p3824
F0.01
tp3825
a(V2015-07-14 13:50:17+00:00
p3826
F0.02
tp3827
a(V2015-07-14 13:58:20+00:00
p3828
F0.01
tp3829
a(V2015-07-14 14:14:26+00:00
p3830
F0.02
tp3831
a(V2015-07-14 14:22:21+00:00
p3832
F0.01
tp3833
a(V2015-07-14 14:38:14+00:00
p3834
F0.02
tp3835
a(V2015-07-14 14:54:42+00:00
p3836
F0.01
tp3837
a(V2015-07-14 15:20:35+00:00
p3838
F0.02
tp3839
a(V2015-07-14 15:54:28+00:00
p3840
F0.01
tp3841
a(V2015-07-14 16:28:52+00:00
p3842
F0.02
tp3843
a(V2015-07-14 16:37:25+00:00
p3844
F0.01
tp3845
a(V2015-07-14 16:54:29+00:00
p3846
F0.02
tp3847
a(V2015-07-14 17:44:44+00:00
p3848
F0.01
tp3849
a(V2015-07-14 17:53:06+00:00
p3850
F0.02
tp3851
a(V2015-07-14 20:07:57+00:00
p3852
F0.01
tp3853
a(V2015-07-14 20:16:31+00:00
p3854
F0.02
tp3855
a(V2015-07-14 20:33:43+00:00
p3856
F0.01
tp3857
a(V2015-07-14 20:42:33+00:00
p3858
F0.02
tp3859
a(V2015-07-14 20:51:36+00:00
p3860
F0.01
tp3861
a(V2015-07-14 21:17:08+00:00
p3862
F0.02
tp3863
a(V2015-07-14 21:42:32+00:00
p3864
F0.01
tp3865
a(V2015-07-14 21:50:42+00:00
p3866
F0.02
tp3867
a(V2015-07-14 22:07:24+00:00
p3868
F0.01
tp3869
a(V2015-07-14 22:32:46+00:00
p3870
F0.02
tp3871
a(V2015-07-14 22:41:06+00:00
p3872
F0.01
tp3873
a(V2015-07-14 22:57:36+00:00
p3874
F0.02
tp3875
a(V2015-07-14 23:25:18+00:00
p3876
F0.01
tp3877
a(V2015-07-14 23:33:45+00:00
p3878
F0.02
tp3879
a(V2015-07-15 00:06:56+00:00
p3880
F0.01
tp3881
a(V2015-07-15 00:16:11+00:00
p3882
F0.02
tp3883
a(V2015-07-15 00:42:16+00:00
p3884
F0.01
tp3885
a(V2015-07-15 01:15:23+00:00
p3886
F0.02
tp3887
a(V2015-07-15 01:31:49+00:00
p3888
F0.01
tp3889
a(V2015-07-15 01:40:15+00:00
p3890
F0.02
tp3891
a(V2015-07-15 01:48:48+00:00
p3892
F0.01
tp3893
a(V2015-07-15 01:57:13+00:00
p3894
F0.02
tp3895
a(V2015-07-15 02:05:29+00:00
p3896
F0.01
tp3897
a(V2015-07-15 02:13:45+00:00
p3898
F0.02
tp3899
a(V2015-07-15 02:22:35+00:00
p3900
F0.01
tp3901
a(V2015-07-15 02:55:15+00:00
p3902
F0.02
tp3903
a(V2015-07-15 03:12:13+00:00
p3904
F0.01
tp3905
a(V2015-07-15 03:20:49+00:00
p3906
F0.02
tp3907
a(V2015-07-15 03:45:19+00:00
p3908
F0.01
tp3909
a(V2015-07-15 04:10:47+00:00
p3910
F0.02
tp3911
a(V2015-07-15 05:59:54+00:00
p3912
F0.01
tp3913
a(V2015-07-15 06:16:30+00:00
p3914
F0.02
tp3915
a(V2015-07-15 06:49:00+00:00
p3916
F0.01
tp3917
a(V2015-07-15 06:57:59+00:00
p3918
F0.02
tp3919
a(V2015-07-15 07:23:50+00:00
p3920
F0.01
tp3921
a(V2015-07-15 07:40:54+00:00
p3922
F0.02
tp3923
a(V2015-07-15 07:56:57+00:00
p3924
F0.01
tp3925
a(V2015-07-15 08:04:54+00:00
p3926
F0.02
tp3927
a(V2015-07-15 08:21:37+00:00
p3928
F0.01
tp3929
a(V2015-07-15 08:37:38+00:00
p3930
F0.02
tp3931
a(V2015-07-15 08:45:35+00:00
p3932
F0.01
tp3933
a(V2015-07-15 09:01:27+00:00
p3934
F0.02
tp3935
a(V2015-07-15 09:42:29+00:00
p3936
F0.01
tp3937
a(V2015-07-15 09:50:22+00:00
p3938
F0.02
tp3939
a(V2015-07-15 09:58:05+00:00
p3940
F0.01
tp3941
a(V2015-07-15 10:13:55+00:00
p3942
F0.02
tp3943
a(V2015-07-15 10:53:16+00:00
p3944
F0.01
tp3945
a(V2015-07-15 11:25:29+00:00
p3946
F0.02
tp3947
a(V2015-07-15 11:41:25+00:00
p3948
F0.01
tp3949
a(V2015-07-15 11:49:23+00:00
p3950
F0.02
tp3951
a(V2015-07-15 11:57:30+00:00
p3952
F0.01
tp3953
a(V2015-07-15 12:22:15+00:00
p3954
F0.02
tp3955
a(V2015-07-15 12:30:17+00:00
p3956
F0.01
tp3957
a(V2015-07-15 12:38:13+00:00
p3958
F0.02
tp3959
a(V2015-07-15 13:02:56+00:00
p3960
F0.01
tp3961
a(V2015-07-15 13:28:44+00:00
p3962
F0.02
tp3963
a(V2015-07-15 13:45:18+00:00
p3964
F0.01
tp3965
a(V2015-07-15 14:01:53+00:00
p3966
F0.02
tp3967
a(V2015-07-15 14:10:21+00:00
p3968
F0.01
tp3969
a(V2015-07-15 14:27:56+00:00
p3970
F0.02
tp3971
a(V2015-07-15 14:36:33+00:00
p3972
F0.01
tp3973
a(V2015-07-15 14:44:59+00:00
p3974
F0.02
tp3975
a(V2015-07-15 15:11:06+00:00
p3976
F0.01
tp3977
a(V2015-07-15 15:28:31+00:00
p3978
F0.02
tp3979
a(V2015-07-15 15:46:00+00:00
p3980
F0.01
tp3981
a(V2015-07-15 16:03:21+00:00
p3982
F0.02
tp3983
a(V2015-07-15 17:05:24+00:00
p3984
F0.01
tp3985
a(V2015-07-15 17:14:19+00:00
p3986
F0.02
tp3987
a(V2015-07-15 17:40:28+00:00
p3988
F0.01
tp3989
a(V2015-07-15 17:49:15+00:00
p3990
F0.02
tp3991
a(V2015-07-15 17:57:57+00:00
p3992
F0.01
tp3993
a(V2015-07-15 18:15:55+00:00
p3994
F0.02
tp3995
a(V2015-07-15 18:34:05+00:00
p3996
F0.015
tp3997
a(V2015-07-15 18:43:05+00:00
p3998
F0.01
tp3999
a(V2015-07-15 18:52:20+00:00
p4000
F0.015
tp4001
a(V2015-07-15 19:16:41+00:00
p4002
F0.01
tp4003
a(V2015-07-15 19:31:41+00:00
p4004
F0.015
tp4005
a(V2015-07-15 19:40:35+00:00
p4006
F0.01
tp4007
a(V2015-07-15 19:49:28+00:00
p4008
F0.015
tp4009
a(V2015-07-15 20:16:19+00:00
p4010
F0.01
tp4011
a(V2015-07-15 20:25:05+00:00
p4012
F0.015
tp4013
a(V2015-07-15 21:09:00+00:00
p4014
F0.01
tp4015
a(V2015-07-15 21:26:06+00:00
p4016
F0.015
tp4017
a(V2015-07-15 21:42:50+00:00
p4018
F0.01
tp4019
a(V2015-07-15 21:51:28+00:00
p4020
F0.015
tp4021
a(V2015-07-15 21:59:50+00:00
p4022
F0.01
tp4023
a(V2015-07-15 22:08:36+00:00
p4024
F0.015
tp4025
a(V2015-07-15 22:34:11+00:00
p4026
F0.01
tp4027
a(V2015-07-15 22:51:06+00:00
p4028
F0.015
tp4029
a(V2015-07-15 22:59:32+00:00
p4030
F0.01
tp4031
a(V2015-07-15 23:07:54+00:00
p4032
F0.015
tp4033
a(V2015-07-15 23:40:40+00:00
p4034
F0.01
tp4035
a(V2015-07-15 23:56:49+00:00
p4036
F0.015
tp4037
a(V2015-07-16 00:05:22+00:00
p4038
F0.01
tp4039
a(V2015-07-16 00:14:06+00:00
p4040
F0.015
tp4041
a(V2015-07-16 00:23:18+00:00
p4042
F0.01
tp4043
a(V2015-07-16 00:32:12+00:00
p4044
F0.015
tp4045
a(V2015-07-16 01:08:47+00:00
p4046
F0.01
tp4047
a(V2015-07-16 01:27:00+00:00
p4048
F0.015
tp4049
a(V2015-07-16 01:35:40+00:00
p4050
F0.01
tp4051
a(V2015-07-16 01:44:20+00:00
p4052
F0.015
tp4053
a(V2015-07-16 02:18:23+00:00
p4054
F0.01
tp4055
a(V2015-07-16 02:27:45+00:00
p4056
F0.015
tp4057
a(V2015-07-16 02:36:42+00:00
p4058
F0.01
tp4059
a(V2015-07-16 02:45:06+00:00
p4060
F0.015
tp4061
a(V2015-07-16 02:53:34+00:00
p4062
F0.01
tp4063
a(V2015-07-16 03:37:19+00:00
p4064
F0.015
tp4065
a(V2015-07-16 03:46:15+00:00
p4066
F0.01
tp4067
a(V2015-07-16 04:03:50+00:00
p4068
F0.015
tp4069
a(V2015-07-16 04:21:27+00:00
p4070
F0.01
tp4071
a(V2015-07-16 04:38:27+00:00
p4072
F0.015
tp4073
a(V2015-07-16 04:47:10+00:00
p4074
F0.01
tp4075
a(V2015-07-16 05:03:56+00:00
p4076
F0.015
tp4077
a(V2015-07-16 05:21:07+00:00
p4078
F0.01
tp4079
a(V2015-07-16 05:37:52+00:00
p4080
F0.015
tp4081
a(V2015-07-16 06:33:58+00:00
p4082
F0.01
tp4083
a(V2015-07-16 06:49:45+00:00
p4084
F0.015
tp4085
a(V2015-07-16 07:21:53+00:00
p4086
F0.01
tp4087
a(V2015-07-16 07:46:17+00:00
p4088
F0.015
tp4089
a(V2015-07-16 08:02:06+00:00
p4090
F0.01
tp4091
a(V2015-07-16 08:26:28+00:00
p4092
F0.015
tp4093
a(V2015-07-16 09:07:05+00:00
p4094
F0.01
tp4095
a(V2015-07-16 09:15:25+00:00
p4096
F0.015
tp4097
a(V2015-07-16 09:31:40+00:00
p4098
F0.01
tp4099
a(V2015-07-16 09:39:41+00:00
p4100
F0.015
tp4101
a(V2015-07-16 09:47:31+00:00
p4102
F0.01
tp4103
a(V2015-07-16 09:55:35+00:00
p4104
F0.015
tp4105
a(V2015-07-16 10:03:44+00:00
p4106
F0.01
tp4107
a(V2015-07-16 10:19:52+00:00
p4108
F0.015
tp4109
a(V2015-07-16 10:27:50+00:00
p4110
F0.01
tp4111
a(V2015-07-16 10:44:06+00:00
p4112
F0.015
tp4113
a(V2015-07-16 10:52:15+00:00
p4114
F0.01
tp4115
a(V2015-07-16 11:25:25+00:00
p4116
F0.015
tp4117
a(V2015-07-16 11:49:48+00:00
p4118
F0.01
tp4119
a(V2015-07-16 12:31:26+00:00
p4120
F0.015
tp4121
a(V2015-07-16 12:39:33+00:00
p4122
F0.01
tp4123
a(V2015-07-16 12:56:06+00:00
p4124
F0.015
tp4125
a(V2015-07-16 13:04:36+00:00
p4126
F0.01
tp4127
a(V2015-07-16 13:21:29+00:00
p4128
F0.015
tp4129
a(V2015-07-16 13:30:18+00:00
p4130
F0.01
tp4131
a(V2015-07-16 13:47:12+00:00
p4132
F0.02
tp4133
a(V2015-07-16 13:55:13+00:00
p4134
F0.01
tp4135
a(V2015-07-16 14:20:37+00:00
p4136
F0.02
tp4137
a(V2015-07-16 15:04:33+00:00
p4138
F0.01
tp4139
a(V2015-07-16 15:13:31+00:00
p4140
F0.02
tp4141
a(V2015-07-16 15:57:19+00:00
p4142
F0.01
tp4143
a(V2015-07-16 16:15:05+00:00
p4144
F0.02
tp4145
a(V2015-07-16 16:32:43+00:00
p4146
F0.01
tp4147
a(V2015-07-16 16:51:09+00:00
p4148
F0.02
tp4149
a(V2015-07-16 18:13:55+00:00
p4150
F0.01
tp4151
a(V2015-07-16 18:23:39+00:00
p4152
F0.02
tp4153
a(V2015-07-16 18:33:05+00:00
p4154
F0.01
tp4155
a(V2015-07-16 19:10:20+00:00
p4156
F0.02
tp4157
a(V2015-07-16 20:25:12+00:00
p4158
F0.01
tp4159
a(V2015-07-16 20:33:54+00:00
p4160
F0.02
tp4161
a(V2015-07-16 20:43:03+00:00
p4162
F0.01
tp4163
a(V2015-07-16 21:00:46+00:00
p4164
F0.02
tp4165
a(V2015-07-16 21:09:55+00:00
p4166
F0.01
tp4167
a(V2015-07-16 21:27:29+00:00
p4168
F0.02
tp4169
a(V2015-07-16 22:10:49+00:00
p4170
F0.01
tp4171
a(V2015-07-16 22:19:56+00:00
p4172
F0.02
tp4173
a(V2015-07-16 22:28:55+00:00
p4174
F0.01
tp4175
a(V2015-07-16 22:47:09+00:00
p4176
F0.02
tp4177
a(V2015-07-16 23:05:28+00:00
p4178
F0.01
tp4179
a(V2015-07-16 23:23:30+00:00
p4180
F0.02
tp4181
a(V2015-07-16 23:32:22+00:00
p4182
F0.01
tp4183
a(V2015-07-16 23:41:17+00:00
p4184
F0.02
tp4185
a(V2015-07-17 00:47:33+00:00
p4186
F0.01
tp4187
a(V2015-07-17 00:56:48+00:00
p4188
F0.02
tp4189
a(V2015-07-17 01:50:52+00:00
p4190
F0.01
tp4191
a(V2015-07-17 02:08:26+00:00
p4192
F0.02
tp4193
a(V2015-07-17 02:36:10+00:00
p4194
F0.01
tp4195
a(V2015-07-17 03:01:30+00:00
p4196
F0.02
tp4197
a(V2015-07-17 03:19:08+00:00
p4198
F0.01
tp4199
a(V2015-07-17 03:28:01+00:00
p4200
F0.02
tp4201
a(V2015-07-17 03:53:12+00:00
p4202
F0.01
tp4203
a(V2015-07-17 04:01:31+00:00
p4204
F0.02
tp4205
a(V2015-07-17 04:27:28+00:00
p4206
F0.01
tp4207
a(V2015-07-17 04:52:10+00:00
p4208
F0.02
tp4209
a(V2015-07-17 05:50:27+00:00
p4210
F0.01
tp4211
a(V2015-07-17 06:15:02+00:00
p4212
F0.02
tp4213
a(V2015-07-17 06:23:21+00:00
p4214
F0.01
tp4215
a(V2015-07-17 06:31:30+00:00
p4216
F0.02
tp4217
a(V2015-07-17 06:47:59+00:00
p4218
F0.01
tp4219
a(V2015-07-17 06:55:56+00:00
p4220
F0.02
tp4221
a(V2015-07-17 07:36:39+00:00
p4222
F0.01
tp4223
a(V2015-07-17 08:00:48+00:00
p4224
F0.02
tp4225
a(V2015-07-17 08:09:21+00:00
p4226
F0.01
tp4227
a(V2015-07-17 08:25:34+00:00
p4228
F0.02
tp4229
a(V2015-07-17 08:33:39+00:00
p4230
F0.01
tp4231
a(V2015-07-17 08:49:54+00:00
p4232
F0.02
tp4233
a(V2015-07-17 09:14:55+00:00
p4234
F0.01
tp4235
a(V2015-07-17 09:31:49+00:00
p4236
F0.02
tp4237
a(V2015-07-17 09:48:14+00:00
p4238
F0.01
tp4239
a(V2015-07-17 09:56:12+00:00
p4240
F0.02
tp4241
a(V2015-07-17 10:04:29+00:00
p4242
F0.01
tp4243
a(V2015-07-17 10:20:42+00:00
p4244
F0.02
tp4245
a(V2015-07-17 11:08:51+00:00
p4246
F0.01
tp4247
a(V2015-07-17 11:17:15+00:00
p4248
F0.02
tp4249
a(V2015-07-17 11:33:28+00:00
p4250
F0.01
tp4251
a(V2015-07-17 11:49:27+00:00
p4252
F0.02
tp4253
a(V2015-07-17 11:57:28+00:00
p4254
F0.01
tp4255
a(V2015-07-17 12:38:35+00:00
p4256
F0.02
tp4257
a(V2015-07-17 12:54:54+00:00
p4258
F0.01
tp4259
a(V2015-07-17 13:20:07+00:00
p4260
F0.02
tp4261
a(V2015-07-17 13:28:33+00:00
p4262
F0.01
tp4263
a(V2015-07-17 13:53:38+00:00
p4264
F0.02
tp4265
a(V2015-07-17 14:36:15+00:00
p4266
F0.01
tp4267
a(V2015-07-17 14:45:22+00:00
p4268
F0.02
tp4269
a(V2015-07-17 15:02:23+00:00
p4270
F0.01
tp4271
a(V2015-07-17 15:11:06+00:00
p4272
F0.02
tp4273
a(V2015-07-17 15:19:44+00:00
p4274
F0.01
tp4275
a(V2015-07-17 15:45:38+00:00
p4276
F0.02
tp4277
a(V2015-07-17 15:54:27+00:00
p4278
F0.01
tp4279
a(V2015-07-17 16:29:41+00:00
p4280
F0.02
tp4281
a(V2015-07-17 16:38:34+00:00
p4282
F0.01
tp4283
a(V2015-07-17 16:47:22+00:00
p4284
F0.02
tp4285
a(V2015-07-17 17:29:53+00:00
p4286
F0.01
tp4287
a(V2015-07-17 18:03:50+00:00
p4288
F0.02
tp4289
a(V2015-07-17 19:22:47+00:00
p4290
F0.01
tp4291
a(V2015-07-17 19:39:49+00:00
p4292
F0.02
tp4293
a(V2015-07-17 19:48:07+00:00
p4294
F0.01
tp4295
a(V2015-07-17 20:05:13+00:00
p4296
F0.02
tp4297
a(V2015-07-17 20:13:36+00:00
p4298
F0.01
tp4299
a(V2015-07-17 20:30:21+00:00
p4300
F0.02
tp4301
a(V2015-07-17 20:56:02+00:00
p4302
F0.01
tp4303
a(V2015-07-17 21:04:50+00:00
p4304
F0.02
tp4305
a(V2015-07-17 21:13:25+00:00
p4306
F0.01
tp4307
a(V2015-07-17 21:22:03+00:00
p4308
F0.02
tp4309
a(V2015-07-17 21:39:38+00:00
p4310
F0.01
tp4311
a(V2015-07-17 22:37:59+00:00
p4312
F0.02
tp4313
a(V2015-07-17 22:54:10+00:00
p4314
F0.01
tp4315
a(V2015-07-17 23:25:40+00:00
p4316
F0.02
tp4317
a(V2015-07-18 00:05:09+00:00
p4318
F0.01
tp4319
a(V2015-07-18 00:21:38+00:00
p4320
F0.02
tp4321
a(V2015-07-18 01:03:42+00:00
p4322
F0.01
tp4323
a(V2015-07-18 01:44:43+00:00
p4324
F0.02
tp4325
a(V2015-07-18 02:00:22+00:00
p4326
F0.01
tp4327
a(V2015-07-18 02:25:06+00:00
p4328
F0.02
tp4329
a(V2015-07-18 02:33:12+00:00
p4330
F0.01
tp4331
a(V2015-07-18 02:56:45+00:00
p4332
F0.02
tp4333
a(V2015-07-18 03:21:11+00:00
p4334
F0.01
tp4335
a(V2015-07-18 03:37:00+00:00
p4336
F0.02
tp4337
a(V2015-07-18 04:09:00+00:00
p4338
F0.01
tp4339
a(V2015-07-18 04:40:23+00:00
p4340
F0.02
tp4341
a(V2015-07-18 05:03:45+00:00
p4342
F0.01
tp4343
a(V2015-07-18 05:20:02+00:00
p4344
F0.02
tp4345
a(V2015-07-18 05:27:40+00:00
p4346
F0.01
tp4347
a(V2015-07-18 05:58:43+00:00
p4348
F0.02
tp4349
a(V2015-07-18 06:14:21+00:00
p4350
F0.01
tp4351
a(V2015-07-18 06:29:56+00:00
p4352
F0.02
tp4353
a(V2015-07-18 06:45:13+00:00
p4354
F0.01
tp4355
a(V2015-07-18 06:52:58+00:00
p4356
F0.02
tp4357
a(V2015-07-18 07:08:32+00:00
p4358
F0.01
tp4359
a(V2015-07-18 07:40:06+00:00
p4360
F0.02
tp4361
a(V2015-07-18 07:55:17+00:00
p4362
F0.01
tp4363
a(V2015-07-18 08:03:13+00:00
p4364
F0.02
tp4365
a(V2015-07-18 08:11:33+00:00
p4366
F0.01
tp4367
a(V2015-07-18 08:19:39+00:00
p4368
F0.02
tp4369
a(V2015-07-18 08:42:37+00:00
p4370
F0.01
tp4371
a(V2015-07-18 08:50:25+00:00
p4372
F0.02
tp4373
a(V2015-07-18 09:44:45+00:00
p4374
F0.01
tp4375
a(V2015-07-18 09:52:20+00:00
p4376
F0.02
tp4377
a(V2015-07-18 10:07:40+00:00
p4378
F0.01
tp4379
a(V2015-07-18 10:15:28+00:00
p4380
F0.02
tp4381
a(V2015-07-18 10:23:17+00:00
p4382
F0.01
tp4383
a(V2015-07-18 10:38:20+00:00
p4384
F0.02
tp4385
a(V2015-07-18 10:53:22+00:00
p4386
F0.01
tp4387
a(V2015-07-18 11:55:32+00:00
p4388
F0.02
tp4389
a(V2015-07-18 12:03:21+00:00
p4390
F0.01
tp4391
a(V2015-07-18 12:18:55+00:00
p4392
F0.02
tp4393
a(V2015-07-18 12:33:59+00:00
p4394
F0.01
tp4395
a(V2015-07-18 12:49:14+00:00
p4396
F0.02
tp4397
a(V2015-07-18 12:56:38+00:00
p4398
F0.01
tp4399
a(V2015-07-18 13:19:25+00:00
p4400
F0.02
tp4401
a(V2015-07-18 13:50:26+00:00
p4402
F0.01
tp4403
a(V2015-07-18 14:14:34+00:00
p4404
F0.02
tp4405
a(V2015-07-18 14:38:12+00:00
p4406
F0.01
tp4407
a(V2015-07-18 15:01:12+00:00
p4408
F0.02
tp4409
a(V2015-07-18 15:09:09+00:00
p4410
F0.01
tp4411
a(V2015-07-18 15:32:51+00:00
p4412
F0.02
tp4413
a(V2015-07-18 15:56:07+00:00
p4414
F0.01
tp4415
a(V2015-07-18 16:04:01+00:00
p4416
F0.02
tp4417
a(V2015-07-18 16:12:05+00:00
p4418
F0.01
tp4419
a(V2015-07-18 16:27:58+00:00
p4420
F0.02
tp4421
a(V2015-07-18 16:36:05+00:00
p4422
F0.01
tp4423
a(V2015-07-18 16:52:22+00:00
p4424
F0.02
tp4425
a(V2015-07-18 17:41:21+00:00
p4426
F0.01
tp4427
a(V2015-07-18 17:49:20+00:00
p4428
F0.02
tp4429
a(V2015-07-18 17:57:13+00:00
p4430
F0.01
tp4431
a(V2015-07-18 18:13:18+00:00
p4432
F0.02
tp4433
a(V2015-07-18 18:29:30+00:00
p4434
F0.01
tp4435
a(V2015-07-18 18:37:33+00:00
p4436
F0.02
tp4437
a(V2015-07-18 18:53:13+00:00
p4438
F0.01
tp4439
a(V2015-07-18 19:01:06+00:00
p4440
F0.02
tp4441
a(V2015-07-18 19:17:25+00:00
p4442
F0.01
tp4443
a(V2015-07-18 19:33:27+00:00
p4444
F0.02
tp4445
a(V2015-07-18 19:41:21+00:00
p4446
F0.01
tp4447
a(V2015-07-18 19:49:25+00:00
p4448
F0.02
tp4449
a(V2015-07-18 19:57:05+00:00
p4450
F0.01
tp4451
a(V2015-07-18 20:12:39+00:00
p4452
F0.02
tp4453
a(V2015-07-18 20:20:33+00:00
p4454
F0.01
tp4455
a(V2015-07-18 21:06:17+00:00
p4456
F0.02
tp4457
a(V2015-07-18 21:22:05+00:00
p4458
F0.01
tp4459
a(V2015-07-18 21:37:49+00:00
p4460
F0.02
tp4461
a(V2015-07-18 22:09:25+00:00
p4462
F0.01
tp4463
a(V2015-07-18 22:25:17+00:00
p4464
F0.02
tp4465
a(V2015-07-18 22:40:40+00:00
p4466
F0.01
tp4467
a(V2015-07-18 23:11:32+00:00
p4468
F0.02
tp4469
a(V2015-07-18 23:19:22+00:00
p4470
F0.01
tp4471
a(V2015-07-18 23:27:05+00:00
p4472
F0.02
tp4473
a(V2015-07-18 23:42:29+00:00
p4474
F0.01
tp4475
a(V2015-07-18 23:50:23+00:00
p4476
F0.02
tp4477
a(V2015-07-19 00:23:44+00:00
p4478
F0.01
tp4479
a(V2015-07-19 00:41:11+00:00
p4480
F0.02
tp4481
a(V2015-07-19 00:49:28+00:00
p4482
F0.01
tp4483
a(V2015-07-19 00:57:31+00:00
p4484
F0.02
tp4485
a(V2015-07-19 01:15:02+00:00
p4486
F0.01
tp4487
a(V2015-07-19 01:31:05+00:00
p4488
F0.02
tp4489
a(V2015-07-19 02:19:37+00:00
p4490
F0.01
tp4491
a(V2015-07-19 02:43:57+00:00
p4492
F0.02
tp4493
a(V2015-07-19 02:51:50+00:00
p4494
F0.01
tp4495
a(V2015-07-19 03:08:02+00:00
p4496
F0.02
tp4497
a(V2015-07-19 03:25:13+00:00
p4498
F0.01
tp4499
a(V2015-07-19 03:33:13+00:00
p4500
F0.02
tp4501
a(V2015-07-19 03:56:59+00:00
p4502
F0.01
tp4503
a(V2015-07-19 04:04:48+00:00
p4504
F0.02
tp4505
a(V2015-07-19 04:12:43+00:00
p4506
F0.01
tp4507
a(V2015-07-19 04:20:43+00:00
p4508
F0.02
tp4509
a(V2015-07-19 04:28:33+00:00
p4510
F0.01
tp4511
a(V2015-07-19 04:43:50+00:00
p4512
F0.02
tp4513
a(V2015-07-19 05:14:48+00:00
p4514
F0.01
tp4515
a(V2015-07-19 05:38:48+00:00
p4516
F0.02
tp4517
a(V2015-07-19 06:18:18+00:00
p4518
F0.01
tp4519
a(V2015-07-19 06:25:51+00:00
p4520
F0.02
tp4521
a(V2015-07-19 06:48:35+00:00
p4522
F0.01
tp4523
a(V2015-07-19 06:56:34+00:00
p4524
F0.02
tp4525
a(V2015-07-19 07:12:43+00:00
p4526
F0.01
tp4527
a(V2015-07-19 07:20:41+00:00
p4528
F0.02
tp4529
a(V2015-07-19 07:28:12+00:00
p4530
F0.01
tp4531
a(V2015-07-19 07:43:46+00:00
p4532
F0.02
tp4533
a(V2015-07-19 07:59:09+00:00
p4534
F0.01
tp4535
a(V2015-07-19 08:07:29+00:00
p4536
F0.02
tp4537
a(V2015-07-19 08:23:22+00:00
p4538
F0.01
tp4539
a(V2015-07-19 08:31:13+00:00
p4540
F0.02
tp4541
a(V2015-07-19 08:46:52+00:00
p4542
F0.01
tp4543
a(V2015-07-19 10:27:03+00:00
p4544
F0.02
tp4545
a(V2015-07-19 11:36:52+00:00
p4546
F0.01
tp4547
a(V2015-07-19 11:44:36+00:00
p4548
F0.02
tp4549
a(V2015-07-19 12:15:40+00:00
p4550
F0.01
tp4551
a(V2015-07-19 12:31:06+00:00
p4552
F0.02
tp4553
a(V2015-07-19 13:25:16+00:00
p4554
F0.01
tp4555
a(V2015-07-19 13:32:55+00:00
p4556
F0.02
tp4557
a(V2015-07-19 13:55:49+00:00
p4558
F0.01
tp4559
a(V2015-07-19 14:03:35+00:00
p4560
F0.02
tp4561
a(V2015-07-19 14:19:05+00:00
p4562
F0.01
tp4563
a(V2015-07-19 14:26:57+00:00
p4564
F0.02
tp4565
a(V2015-07-19 14:34:55+00:00
p4566
F0.01
tp4567
a(V2015-07-19 14:42:48+00:00
p4568
F0.02
tp4569
a(V2015-07-19 15:22:28+00:00
p4570
F0.01
tp4571
a(V2015-07-19 15:38:38+00:00
p4572
F0.02
tp4573
a(V2015-07-19 15:54:43+00:00
p4574
F0.01
tp4575
a(V2015-07-19 16:27:18+00:00
p4576
F0.02
tp4577
a(V2015-07-19 16:52:09+00:00
p4578
F0.01
tp4579
a(V2015-07-19 17:08:17+00:00
p4580
F0.02
tp4581
a(V2015-07-19 17:48:20+00:00
p4582
F0.01
tp4583
a(V2015-07-19 17:56:16+00:00
p4584
F0.02
tp4585
a(V2015-07-19 18:59:14+00:00
p4586
F0.01
tp4587
a(V2015-07-19 19:07:30+00:00
p4588
F0.02
tp4589
a(V2015-07-19 19:15:49+00:00
p4590
F0.01
tp4591
a(V2015-07-19 19:39:34+00:00
p4592
F0.02
tp4593
a(V2015-07-19 20:11:53+00:00
p4594
F0.01
tp4595
a(V2015-07-19 20:27:46+00:00
p4596
F0.02
tp4597
a(V2015-07-19 20:52:10+00:00
p4598
F0.01
tp4599
a(V2015-07-19 21:25:04+00:00
p4600
F0.02
tp4601
a(V2015-07-19 21:41:03+00:00
p4602
F0.01
tp4603
a(V2015-07-19 22:04:47+00:00
p4604
F0.02
tp4605
a(V2015-07-19 22:28:50+00:00
p4606
F0.01
tp4607
a(V2015-07-19 22:44:50+00:00
p4608
F0.02
tp4609
a(V2015-07-19 23:25:28+00:00
p4610
F0.01
tp4611
a(V2015-07-19 23:33:37+00:00
p4612
F0.02
tp4613
a(V2015-07-19 23:41:49+00:00
p4614
F0.01
tp4615
a(V2015-07-19 23:49:50+00:00
p4616
F0.02
tp4617
a(V2015-07-20 00:06:24+00:00
p4618
F0.01
tp4619
a(V2015-07-20 00:14:59+00:00
p4620
F0.02
tp4621
a(V2015-07-20 00:23:51+00:00
p4622
F0.01
tp4623
a(V2015-07-20 00:32:32+00:00
p4624
F0.02
tp4625
a(V2015-07-20 00:58:38+00:00
p4626
F0.01
tp4627
a(V2015-07-20 01:15:50+00:00
p4628
F0.02
tp4629
a(V2015-07-20 01:24:23+00:00
p4630
F0.01
tp4631
a(V2015-07-20 01:32:30+00:00
p4632
F0.02
tp4633
a(V2015-07-20 01:40:48+00:00
p4634
F0.01
tp4635
a(V2015-07-20 02:04:49+00:00
p4636
F0.02
tp4637
a(V2015-07-20 02:29:57+00:00
p4638
F0.01
tp4639
a(V2015-07-20 02:38:38+00:00
p4640
F0.02
tp4641
a(V2015-07-20 02:54:57+00:00
p4642
F0.01
tp4643
a(V2015-07-20 03:02:55+00:00
p4644
F0.02
tp4645
a(V2015-07-20 03:27:45+00:00
p4646
F0.01
tp4647
a(V2015-07-20 03:43:24+00:00
p4648
F0.02
tp4649
a(V2015-07-20 04:23:32+00:00
p4650
F0.01
tp4651
a(V2015-07-20 04:31:34+00:00
p4652
F0.02
tp4653
a(V2015-07-20 04:47:10+00:00
p4654
F0.01
tp4655
a(V2015-07-20 04:55:14+00:00
p4656
F0.02
tp4657
a(V2015-07-20 05:36:44+00:00
p4658
F0.01
tp4659
a(V2015-07-20 05:53:25+00:00
p4660
F0.02
tp4661
a(V2015-07-20 06:01:33+00:00
p4662
F0.01
tp4663
a(V2015-07-20 06:09:42+00:00
p4664
F0.02
tp4665
a(V2015-07-20 07:22:41+00:00
p4666
F0.01
tp4667
a(V2015-07-20 07:38:56+00:00
p4668
F0.02
tp4669
a(V2015-07-20 08:11:33+00:00
p4670
F0.01
tp4671
a(V2015-07-20 08:19:27+00:00
p4672
F0.02
tp4673
a(V2015-07-20 08:27:16+00:00
p4674
F0.01
tp4675
a(V2015-07-20 08:35:12+00:00
p4676
F0.02
tp4677
a(V2015-07-20 09:58:54+00:00
p4678
F0.01
tp4679
a(V2015-07-20 10:32:43+00:00
p4680
F0.02
tp4681
a(V2015-07-20 10:41:16+00:00
p4682
F0.01
tp4683
a(V2015-07-20 10:58:02+00:00
p4684
F0.02
tp4685
a(V2015-07-20 11:32:27+00:00
p4686
F0.01
tp4687
a(V2015-07-20 11:40:50+00:00
p4688
F0.02
tp4689
a(V2015-07-20 12:15:26+00:00
p4690
F0.01
tp4691
a(V2015-07-20 12:41:14+00:00
p4692
F0.02
tp4693
a(V2015-07-20 12:50:10+00:00
p4694
F0.01
tp4695
a(V2015-07-20 12:59:07+00:00
p4696
F0.02
tp4697
a(V2015-07-20 13:08:28+00:00
p4698
F0.01
tp4699
a(V2015-07-20 13:36:11+00:00
p4700
F0.02
tp4701
a(V2015-07-20 13:53:40+00:00
p4702
F0.01
tp4703
a(V2015-07-20 14:02:13+00:00
p4704
F0.02
tp4705
a(V2015-07-20 14:38:00+00:00
p4706
F0.01
tp4707
a(V2015-07-20 14:47:03+00:00
p4708
F0.02
tp4709
a(V2015-07-20 15:05:25+00:00
p4710
F0.01
tp4711
a(V2015-07-20 15:33:07+00:00
p4712
F0.02
tp4713
a(V2015-07-20 15:51:35+00:00
p4714
F0.01
tp4715
a(V2015-07-20 16:10:15+00:00
p4716
F0.02
tp4717
a(V2015-07-20 16:29:16+00:00
p4718
F0.01
tp4719
a(V2015-07-20 16:38:38+00:00
p4720
F0.02
tp4721
a(V2015-07-20 17:06:54+00:00
p4722
F0.01
tp4723
a(V2015-07-20 17:16:00+00:00
p4724
F0.02
tp4725
a(V2015-07-20 17:24:59+00:00
p4726
F0.01
tp4727
a(V2015-07-20 17:34:07+00:00
p4728
F0.02
tp4729
a(V2015-07-20 18:49:18+00:00
p4730
F0.01
tp4731
a(V2015-07-20 18:58:42+00:00
p4732
F0.02
tp4733
a(V2015-07-20 19:08:14+00:00
p4734
F0.0096
tp4735
a(V2015-07-20 19:28:02+00:00
p4736
F0.0094
tp4737
a(V2015-07-20 19:37:45+00:00
p4738
F0.0095
tp4739
a(V2015-07-20 19:47:26+00:00
p4740
F0.0086
tp4741
a(V2015-07-20 19:57:01+00:00
p4742
F0.0083
tp4743
a(V2015-07-20 21:17:35+00:00
p4744
F0.01
tp4745
a(V2015-07-20 21:27:33+00:00
p4746
F0.02
tp4747
a(V2015-07-20 22:08:49+00:00
p4748
F0.01
tp4749
a(V2015-07-20 22:36:28+00:00
p4750
F0.02
tp4751
a(V2015-07-20 22:45:58+00:00
p4752
F0.01
tp4753
a(V2015-07-20 22:55:29+00:00
p4754
F0.02
tp4755
a(V2015-07-20 23:14:26+00:00
p4756
F0.01
tp4757
a(V2015-07-20 23:32:46+00:00
p4758
F0.02
tp4759
a(V2015-07-20 23:41:38+00:00
p4760
F0.01
tp4761
a(V2015-07-20 23:50:29+00:00
p4762
F0.02
tp4763
a(V2015-07-21 00:17:55+00:00
p4764
F0.0082
tp4765
a(V2015-07-21 01:51:54+00:00
p4766
F0.0083
tp4767
a(V2015-07-21 02:19:10+00:00
p4768
F0.0082
tp4769
a(V2015-07-21 02:29:02+00:00
p4770
F0.0084
tp4771
a(V2015-07-21 02:38:37+00:00
p4772
F0.0095
tp4773
a(V2015-07-21 02:57:42+00:00
p4774
F0.02
tp4775
a(V2015-07-21 03:34:12+00:00
p4776
F0.01
tp4777
a(V2015-07-21 03:43:21+00:00
p4778
F0.02
tp4779
a(V2015-07-21 04:36:10+00:00
p4780
F0.01
tp4781
a(V2015-07-21 04:53:06+00:00
p4782
F0.02
tp4783
a(V2015-07-21 05:01:19+00:00
p4784
F0.01
tp4785
a(V2015-07-21 05:10:00+00:00
p4786
F0.02
tp4787
a(V2015-07-21 05:36:36+00:00
p4788
F0.01
tp4789
a(V2015-07-21 06:12:21+00:00
p4790
F0.02
tp4791
a(V2015-07-21 06:46:52+00:00
p4792
F0.01
tp4793
a(V2015-07-21 07:20:21+00:00
p4794
F0.02
tp4795
a(V2015-07-21 07:59:42+00:00
p4796
F0.0097
tp4797
a(V2015-07-21 08:16:06+00:00
p4798
F0.0096
tp4799
a(V2015-07-21 08:23:55+00:00
p4800
F0.0095
tp4801
a(V2015-07-21 08:31:57+00:00
p4802
F0.0094
tp4803
a(V2015-07-21 08:47:24+00:00
p4804
F0.0091
tp4805
a(V2015-07-21 08:55:16+00:00
p4806
F0.0087
tp4807
a(V2015-07-21 09:03:07+00:00
p4808
F0.0086
tp4809
a(V2015-07-21 09:11:45+00:00
p4810
F0.0084
tp4811
a(V2015-07-21 09:20:05+00:00
p4812
F0.0083
tp4813
a(V2015-07-21 09:28:01+00:00
p4814
F0.0086
tp4815
a(V2015-07-21 09:36:40+00:00
p4816
F0.0087
tp4817
a(V2015-07-21 09:53:09+00:00
p4818
F0.0088
tp4819
a(V2015-07-21 10:01:01+00:00
p4820
F0.0093
tp4821
a(V2015-07-21 10:17:31+00:00
p4822
F0.0096
tp4823
a(V2015-07-21 10:33:31+00:00
p4824
F0.0097
tp4825
a(V2015-07-21 10:46:37+00:00
p4826
F0.0081
tp4827
a(V2015-07-21 10:49:07+00:00
p4828
F0.0097
tp4829
a(V2015-07-21 10:54:21+00:00
p4830
F0.0081
tp4831
a(V2015-07-21 10:56:47+00:00
p4832
F0.0096
tp4833
a(V2015-07-21 11:02:02+00:00
p4834
F0.0081
tp4835
a(V2015-07-21 11:04:33+00:00
p4836
F0.0097
tp4837
a(V2015-07-21 11:10:10+00:00
p4838
F0.0081
tp4839
a(V2015-07-21 11:12:50+00:00
p4840
F0.0098
tp4841
a(V2015-07-21 11:18:16+00:00
p4842
F0.0081
tp4843
a(V2015-07-21 11:21:02+00:00
p4844
F0.0098
tp4845
a(V2015-07-21 12:08:36+00:00
p4846
F0.0099
tp4847
a(V2015-07-21 12:57:37+00:00
p4848
F0.0098
tp4849
a(V2015-07-21 13:05:40+00:00
p4850
F0.0099
tp4851
a(V2015-07-21 13:38:51+00:00
p4852
F0.0098
tp4853
a(V2015-07-21 13:47:19+00:00
p4854
F0.0099
tp4855
a(V2015-07-21 14:03:51+00:00
p4856
F0.01
tp4857
a(V2015-07-21 14:12:10+00:00
p4858
F0.0101
tp4859
a(V2015-07-21 14:28:50+00:00
p4860
F0.0102
tp4861
a(V2015-07-21 14:55:45+00:00
p4862
F0.0103
tp4863
a(V2015-07-21 15:36:26+00:00
p4864
F0.0081
tp4865
a(V2015-07-21 15:39:10+00:00
p4866
F0.0103
tp4867
a(V2015-07-21 15:45:01+00:00
p4868
F0.0081
tp4869
a(V2015-07-21 15:47:40+00:00
p4870
F0.0104
tp4871
a(V2015-07-21 15:57:11+00:00
p4872
F0.0105
tp4873
a(V2015-07-21 16:03:07+00:00
p4874
F0.0081
tp4875
a(V2015-07-21 16:06:11+00:00
p4876
F0.0104
tp4877
a(V2015-07-21 16:12:13+00:00
p4878
F0.0081
tp4879
a(V2015-07-21 16:14:38+00:00
p4880
F0.0103
tp4881
a(V2015-07-21 16:23:08+00:00
p4882
F0.0105
tp4883
a(V2015-07-21 16:31:42+00:00
p4884
F0.0106
tp4885
a(V2015-07-21 16:40:14+00:00
p4886
F0.0105
tp4887
a(V2015-07-21 16:48:36+00:00
p4888
F0.0104
tp4889
a(V2015-07-21 16:57:08+00:00
p4890
F0.0105
tp4891
a(V2015-07-21 17:05:45+00:00
p4892
F0.0106
tp4893
a(V2015-07-21 17:14:36+00:00
p4894
F0.0108
tp4895
a(V2015-07-21 17:33:03+00:00
p4896
F0.0109
tp4897
a(V2015-07-21 17:41:52+00:00
p4898
F0.0093
tp4899
a(V2015-07-21 17:50:31+00:00
p4900
F0.0099
tp4901
a(V2015-07-21 17:59:18+00:00
p4902
F0.01
tp4903
a(V2015-07-21 18:08:08+00:00
p4904
F0.0109
tp4905
a(V2015-07-21 18:25:54+00:00
p4906
F0.0107
tp4907
a(V2015-07-21 18:34:52+00:00
p4908
F0.0108
tp4909
a(V2015-07-21 18:43:37+00:00
p4910
F0.0104
tp4911
a(V2015-07-21 19:09:51+00:00
p4912
F0.0105
tp4913
a(V2015-07-21 19:18:50+00:00
p4914
F0.0106
tp4915
a(V2015-07-21 19:27:49+00:00
p4916
F0.0109
tp4917
a(V2015-07-21 19:46:21+00:00
p4918
F0.0105
tp4919
a(V2015-07-21 19:55:06+00:00
p4920
F0.0087
tp4921
a(V2015-07-21 20:04:11+00:00
p4922
F0.0086
tp4923
a(V2015-07-21 20:14:08+00:00
p4924
F0.0084
tp4925
a(V2015-07-21 21:21:45+00:00
p4926
F0.0083
tp4927
a(V2015-07-21 22:49:54+00:00
p4928
F0.0083
tp4929
a(V2015-07-21 23:06:22+00:00
p4930
F0.0085
tp4931
a(V2015-07-22 03:41:01+00:00
p4932
F0.0083
tp4933
a(V2015-07-22 03:50:15+00:00
p4934
F0.0085
tp4935
a(V2015-07-22 04:25:33+00:00
p4936
F0.0084
tp4937
a(V2015-07-22 04:33:34+00:00
p4938
F0.0083
tp4939
a(V2015-07-22 04:55:05+00:00
p4940
F0.0085
tp4941
a(V2015-07-22 05:12:00+00:00
p4942
F0.0084
tp4943
a(V2015-07-22 05:20:30+00:00
p4944
F0.0095
tp4945
a(V2015-07-22 06:02:45+00:00
p4946
F0.0081
tp4947
a(V2015-07-22 06:05:31+00:00
p4948
F0.0095
tp4949
a(V2015-07-22 06:11:16+00:00
p4950
F0.0081
tp4951
a(V2015-07-22 06:13:48+00:00
p4952
F0.0086
tp4953
a(V2015-07-22 06:19:20+00:00
p4954
F0.0081
tp4955
a(V2015-07-22 06:21:59+00:00
p4956
F0.0085
tp4957
a(V2015-07-22 06:27:42+00:00
p4958
F0.0081
tp4959
a(V2015-07-22 06:30:12+00:00
p4960
F0.0084
tp4961
a(V2015-07-22 06:35:54+00:00
p4962
F0.0081
tp4963
a(V2015-07-22 06:38:23+00:00
p4964
F0.0084
tp4965
a(V2015-07-22 06:44:06+00:00
p4966
F0.0081
tp4967
a(V2015-07-22 06:46:50+00:00
p4968
F0.0084
tp4969
a(V2015-07-22 07:13:10+00:00
p4970
F0.0083
tp4971
a(V2015-07-22 07:21:59+00:00
p4972
F0.0088
tp4973
a(V2015-07-22 07:30:21+00:00
p4974
F0.0094
tp4975
a(V2015-07-22 07:55:09+00:00
p4976
F0.0093
tp4977
a(V2015-07-22 08:03:40+00:00
p4978
F0.0092
tp4979
a(V2015-07-22 08:12:29+00:00
p4980
F0.0093
tp4981
a(V2015-07-22 08:38:01+00:00
p4982
F0.0092
tp4983
a(V2015-07-22 08:54:29+00:00
p4984
F0.009
tp4985
a(V2015-07-22 09:02:42+00:00
p4986
F0.0088
tp4987
a(V2015-07-22 09:11:17+00:00
p4988
F0.0086
tp4989
a(V2015-07-22 09:20:16+00:00
p4990
F0.0085
tp4991
a(V2015-07-22 09:28:30+00:00
p4992
F0.0087
tp4993
a(V2015-07-22 09:36:39+00:00
p4994
F0.0091
tp4995
a(V2015-07-22 10:02:14+00:00
p4996
F0.0092
tp4997
a(V2015-07-22 10:19:20+00:00
p4998
F0.0096
tp4999
a(V2015-07-22 10:27:33+00:00
p5000
F0.0097
tp5001
a(V2015-07-22 10:43:58+00:00
p5002
F0.0099
tp5003
a(V2015-07-22 10:52:16+00:00
p5004
F0.01
tp5005
a(V2015-07-22 11:25:05+00:00
p5006
F0.0101
tp5007
a(V2015-07-22 11:40:58+00:00
p5008
F0.0102
tp5009
a(V2015-07-22 12:06:09+00:00
p5010
F0.02
tp5011
a(V2015-07-22 12:48:09+00:00
p5012
F0.0105
tp5013
a(V2015-07-22 13:05:10+00:00
p5014
F0.0106
tp5015
a(V2015-07-22 13:23:01+00:00
p5016
F0.0107
tp5017
a(V2015-07-22 13:31:27+00:00
p5018
F0.0106
tp5019
a(V2015-07-22 14:22:28+00:00
p5020
F0.0107
tp5021
a(V2015-07-22 14:49:58+00:00
p5022
F0.0106
tp5023
a(V2015-07-22 15:07:40+00:00
p5024
F0.0107
tp5025
a(V2015-07-22 15:16:15+00:00
p5026
F0.0106
tp5027
a(V2015-07-22 15:52:59+00:00
p5028
F0.0107
tp5029
a(V2015-07-22 16:12:02+00:00
p5030
F0.0106
tp5031
a(V2015-07-22 16:29:51+00:00
p5032
F0.0107
tp5033
a(V2015-07-22 16:56:01+00:00
p5034
F0.0106
tp5035
a(V2015-07-22 17:04:48+00:00
p5036
F0.0107
tp5037
a(V2015-07-22 17:22:33+00:00
p5038
F0.0108
tp5039
a(V2015-07-22 17:40:24+00:00
p5040
F0.011
tp5041
a(V2015-07-22 17:58:27+00:00
p5042
F0.0109
tp5043
a(V2015-07-22 18:16:40+00:00
p5044
F0.011
tp5045
a(V2015-07-22 18:25:53+00:00
p5046
F0.0109
tp5047
a(V2015-07-22 18:54:08+00:00
p5048
F0.011
tp5049
a(V2015-07-22 19:03:33+00:00
p5050
F0.0109
tp5051
a(V2015-07-22 19:31:55+00:00
p5052
F0.0111
tp5053
a(V2015-07-22 20:35:47+00:00
p5054
F0.011
tp5055
a(V2015-07-22 20:45:08+00:00
p5056
F0.0109
tp5057
a(V2015-07-22 20:54:09+00:00
p5058
F0.0108
tp5059
a(V2015-07-22 21:03:08+00:00
p5060
F0.0109
tp5061
a(V2015-07-22 21:30:08+00:00
p5062
F0.0107
tp5063
a(V2015-07-22 21:39:01+00:00
p5064
F0.0108
tp5065
a(V2015-07-22 22:00:10+00:00
p5066
F0.0107
tp5067
a(V2015-07-22 22:09:28+00:00
p5068
F0.0104
tp5069
a(V2015-07-22 22:18:26+00:00
p5070
F0.0102
tp5071
a(V2015-07-22 22:45:59+00:00
p5072
F0.0103
tp5073
a(V2015-07-22 23:03:11+00:00
p5074
F0.0102
tp5075
a(V2015-07-22 23:11:57+00:00
p5076
F0.0103
tp5077
a(V2015-07-22 23:20:29+00:00
p5078
F0.0102
tp5079
a(V2015-07-22 23:37:36+00:00
p5080
F0.0101
tp5081
a(V2015-07-22 23:45:57+00:00
p5082
F0.0088
tp5083
a(V2015-07-22 23:54:31+00:00
p5084
F0.0085
tp5085
a(V2015-07-23 00:03:16+00:00
p5086
F0.0084
tp5087
a(V2015-07-23 00:21:54+00:00
p5088
F0.0083
tp5089
a(V2015-07-23 06:14:56+00:00
p5090
F0.0082
tp5091
a(V2015-07-23 06:23:11+00:00
p5092
F0.0083
tp5093
a(V2015-07-23 06:31:14+00:00
p5094
F0.0082
tp5095
a(V2015-07-23 06:39:29+00:00
p5096
F0.0084
tp5097
a(V2015-07-23 06:47:36+00:00
p5098
F0.0086
tp5099
a(V2015-07-23 07:04:11+00:00
p5100
F0.0088
tp5101
a(V2015-07-23 07:12:40+00:00
p5102
F0.0089
tp5103
a(V2015-07-23 08:35:08+00:00
p5104
F0.0088
tp5105
a(V2015-07-23 08:51:32+00:00
p5106
F0.0089
tp5107
a(V2015-07-23 10:15:38+00:00
p5108
F0.009
tp5109
a(V2015-07-23 10:41:28+00:00
p5110
F0.0089
tp5111
a(V2015-07-23 10:58:37+00:00
p5112
F0.009
tp5113
a(V2015-07-23 11:58:53+00:00
p5114
F0.0091
tp5115
a(V2015-07-23 12:08:01+00:00
p5116
F0.0093
tp5117
a(V2015-07-23 12:16:53+00:00
p5118
F0.0094
tp5119
a(V2015-07-23 13:01:09+00:00
p5120
F0.0095
tp5121
a(V2015-07-23 13:19:21+00:00
p5122
F0.0096
tp5123
a(V2015-07-23 13:54:40+00:00
p5124
F0.0092
tp5125
a(V2015-07-23 14:03:28+00:00
p5126
F0.0087
tp5127
a(V2015-07-23 14:12:10+00:00
p5128
F0.0086
tp5129
a(V2015-07-23 14:48:16+00:00
p5130
F0.0085
tp5131
a(V2015-07-23 15:06:09+00:00
p5132
F0.0086
tp5133
a(V2015-07-23 15:15:28+00:00
p5134
F0.0093
tp5135
a(V2015-07-23 15:24:50+00:00
p5136
F0.0092
tp5137
a(V2015-07-23 15:43:50+00:00
p5138
F0.0091
tp5139
a(V2015-07-23 16:01:45+00:00
p5140
F0.009
tp5141
a(V2015-07-23 16:47:47+00:00
p5142
F0.0095
tp5143
a(V2015-07-23 16:56:24+00:00
p5144
F0.0096
tp5145
a(V2015-07-23 17:32:40+00:00
p5146
F0.0097
tp5147
a(V2015-07-23 17:41:08+00:00
p5148
F0.0094
tp5149
a(V2015-07-23 17:49:52+00:00
p5150
F0.0093
tp5151
a(V2015-07-23 17:58:59+00:00
p5152
F0.0094
tp5153
a(V2015-07-23 18:16:37+00:00
p5154
F0.0093
tp5155
a(V2015-07-23 18:25:27+00:00
p5156
F0.0092
tp5157
a(V2015-07-23 18:34:34+00:00
p5158
F0.0087
tp5159
a(V2015-07-23 18:43:40+00:00
p5160
F0.0092
tp5161
a(V2015-07-23 19:10:08+00:00
p5162
F0.0093
tp5163
a(V2015-07-23 19:19:14+00:00
p5164
F0.0092
tp5165
a(V2015-07-23 19:28:02+00:00
p5166
F0.0091
tp5167
a(V2015-07-23 19:37:07+00:00
p5168
F0.0092
tp5169
a(V2015-07-23 20:03:23+00:00
p5170
F0.0091
tp5171
a(V2015-07-23 20:30:14+00:00
p5172
F0.0092
tp5173
a(V2015-07-23 21:25:24+00:00
p5174
F0.0091
tp5175
a(V2015-07-23 21:42:49+00:00
p5176
F0.0092
tp5177
a(V2015-07-23 22:00:13+00:00
p5178
F0.0091
tp5179
a(V2015-07-23 23:09:46+00:00
p5180
F0.009
tp5181
a(V2015-07-24 00:00:09+00:00
p5182
F0.0086
tp5183
a(V2015-07-24 00:09:12+00:00
p5184
F0.0083
tp5185
a(V2015-07-24 10:01:16+00:00
p5186
F0.0084
tp5187
a(V2015-07-24 10:17:47+00:00
p5188
F0.0083
tp5189
a(V2015-07-24 11:33:11+00:00
p5190
F0.0084
tp5191
a(V2015-07-24 12:05:31+00:00
p5192
F0.0085
tp5193
a(V2015-07-24 12:13:56+00:00
p5194
F0.0086
tp5195
a(V2015-07-24 13:11:35+00:00
p5196
F0.0087
tp5197
a(V2015-07-24 13:20:19+00:00
p5198
F0.0086
tp5199
a(V2015-07-24 14:02:37+00:00
p5200
F0.0087
tp5201
a(V2015-07-24 14:11:45+00:00
p5202
F0.0085
tp5203
a(V2015-07-24 15:30:07+00:00
p5204
F0.0084
tp5205
a(V2015-07-24 15:38:34+00:00
p5206
F0.0085
tp5207
a(V2015-07-24 15:47:27+00:00
p5208
F0.0092
tp5209
a(V2015-07-24 15:56:17+00:00
p5210
F0.0093
tp5211
a(V2015-07-24 16:31:17+00:00
p5212
F0.0092
tp5213
a(V2015-07-24 16:40:35+00:00
p5214
F0.0095
tp5215
a(V2015-07-24 16:49:34+00:00
p5216
F0.0098
tp5217
a(V2015-07-24 16:58:58+00:00
p5218
F0.011
tp5219
a(V2015-07-24 17:07:25+00:00
p5220
F0.0099
tp5221
a(V2015-07-24 17:16:03+00:00
p5222
F0.01
tp5223
a(V2015-07-24 17:24:28+00:00
p5224
F0.0099
tp5225
a(V2015-07-24 17:32:58+00:00
p5226
F0.0098
tp5227
a(V2015-07-24 17:41:30+00:00
p5228
F0.011
tp5229
a(V2015-07-24 19:13:44+00:00
p5230
F0.0097
tp5231
a(V2015-07-24 19:19:41+00:00
p5232
F0.0098
tp5233
a(V2015-07-24 19:28:15+00:00
p5234
F0.0099
tp5235
a(V2015-07-24 19:37:02+00:00
p5236
F0.0096
tp5237
a(V2015-07-24 19:42:52+00:00
p5238
F0.0097
tp5239
a(V2015-07-24 19:48:36+00:00
p5240
F0.0098
tp5241
a(V2015-07-24 20:05:47+00:00
p5242
F0.0097
tp5243
a(V2015-07-24 20:17:59+00:00
p5244
F0.0098
tp5245
a(V2015-07-24 20:46:54+00:00
p5246
F0.0097
tp5247
a(V2015-07-24 20:55:28+00:00
p5248
F0.0096
tp5249
a(V2015-07-24 21:10:06+00:00
p5250
F0.0095
tp5251
a(V2015-07-24 21:34:03+00:00
p5252
F0.0093
tp5253
a(V2015-07-24 21:40:12+00:00
p5254
F0.0087
tp5255
a(V2015-07-24 21:48:36+00:00
p5256
F0.0084
tp5257
a(V2015-07-24 22:18:09+00:00
p5258
F0.0083
tp5259
a(V2015-07-25 01:28:17+00:00
p5260
F0.0082
tp5261
a(V2015-07-25 01:36:44+00:00
p5262
F0.0083
tp5263
a(V2015-07-25 02:31:16+00:00
p5264
F0.0084
tp5265
a(V2015-07-25 02:39:58+00:00
p5266
F0.0088
tp5267
a(V2015-07-25 02:48:04+00:00
p5268
F0.0095
tp5269
a(V2015-07-25 02:56:40+00:00
p5270
F0.0094
tp5271
a(V2015-07-25 03:21:54+00:00
p5272
F0.0091
tp5273
a(V2015-07-25 03:30:02+00:00
p5274
F0.0088
tp5275
a(V2015-07-25 03:38:05+00:00
p5276
F0.0083
tp5277
a(V2015-07-25 03:46:34+00:00
p5278
F0.0085
tp5279
a(V2015-07-25 04:02:38+00:00
p5280
F0.0084
tp5281
a(V2015-07-25 04:11:02+00:00
p5282
F0.0083
tp5283
a(V2015-07-25 04:43:00+00:00
p5284
F0.0082
tp5285
a(V2015-07-25 04:51:17+00:00
p5286
F0.0083
tp5287
a(V2015-07-25 04:59:34+00:00
p5288
F0.0082
tp5289
a(V2015-07-25 05:16:14+00:00
p5290
F0.0083
tp5291
a(V2015-07-25 06:15:49+00:00
p5292
F0.0082
tp5293
a(V2015-07-25 06:32:10+00:00
p5294
F0.0083
tp5295
a(V2015-07-25 08:35:40+00:00
p5296
F0.0082
tp5297
a(V2015-07-25 18:46:52+00:00
p5298
F0.0083
tp5299
a(V2015-07-25 23:07:41+00:00
p5300
F0.0082
tp5301
a(V2015-07-25 23:59:20+00:00
p5302
F0.0083
tp5303
a(V2015-07-26 00:27:08+00:00
p5304
F0.0082
tp5305
a(V2015-07-26 00:36:03+00:00
p5306
F0.0083
tp5307
a(V2015-07-26 02:10:13+00:00
p5308
F0.0084
tp5309
a(V2015-07-26 02:18:20+00:00
p5310
F0.0083
tp5311
a(V2015-07-26 02:35:07+00:00
p5312
F0.0084
tp5313
a(V2015-07-26 03:32:15+00:00
p5314
F0.0083
tp5315
a(V2015-07-27 03:37:03+00:00
p5316
F0.0083
tp5317
a(V2015-07-27 12:05:00+00:00
p5318
F0.0084
tp5319
a(V2015-07-27 14:23:19+00:00
p5320
F0.0085
tp5321
a(V2015-07-27 14:41:04+00:00
p5322
F0.0084
tp5323
a(V2015-07-27 14:59:16+00:00
p5324
F0.0085
tp5325
a(V2015-07-27 17:58:15+00:00
p5326
F0.0086
tp5327
a(V2015-07-27 19:18:25+00:00
p5328
F0.0087
tp5329
a(V2015-07-27 19:35:55+00:00
p5330
F0.0086
tp5331
a(V2015-07-27 19:53:24+00:00
p5332
F0.0087
tp5333
a(V2015-07-27 20:19:14+00:00
p5334
F0.0088
tp5335
a(V2015-07-27 20:45:16+00:00
p5336
F0.0089
tp5337
a(V2015-07-27 21:02:12+00:00
p5338
F0.0088
tp5339
a(V2015-07-27 21:29:17+00:00
p5340
F0.0089
tp5341
a(V2015-07-27 21:37:53+00:00
p5342
F0.0088
tp5343
a(V2015-07-27 22:04:23+00:00
p5344
F0.0087
tp5345
a(V2015-07-27 22:21:18+00:00
p5346
F0.0086
tp5347
a(V2015-07-27 23:12:21+00:00
p5348
F0.0085
tp5349
a(V2015-07-28 00:28:06+00:00
p5350
F0.0084
tp5351
a(V2015-07-28 01:38:08+00:00
p5352
F0.0083
tp5353
a(V2015-07-28 01:46:48+00:00
p5354
F0.0084
tp5355
a(V2015-07-28 01:55:18+00:00
p5356
F0.0083
tp5357
a(V2015-07-28 02:12:53+00:00
p5358
F0.0084
tp5359
a(V2015-07-28 02:56:27+00:00
p5360
F0.0088
tp5361
a(V2015-07-28 03:05:50+00:00
p5362
F0.0099
tp5363
a(V2015-07-28 03:14:59+00:00
p5364
F0.0104
tp5365
a(V2015-07-28 03:32:09+00:00
p5366
F0.0102
tp5367
a(V2015-07-28 03:40:55+00:00
p5368
F0.009
tp5369
a(V2015-07-28 03:49:50+00:00
p5370
F0.0085
tp5371
a(V2015-07-28 03:58:11+00:00
p5372
F0.0084
tp5373
a(V2015-07-28 04:06:29+00:00
p5374
F0.0088
tp5375
a(V2015-07-28 04:23:23+00:00
p5376
F0.0087
tp5377
a(V2015-07-28 04:31:53+00:00
p5378
F0.0088
tp5379
a(V2015-07-28 04:40:21+00:00
p5380
F0.0087
tp5381
a(V2015-07-28 04:48:46+00:00
p5382
F0.0086
tp5383
a(V2015-07-28 05:05:47+00:00
p5384
F0.009
tp5385
a(V2015-07-28 05:14:16+00:00
p5386
F0.0099
tp5387
a(V2015-07-28 05:31:49+00:00
p5388
F0.0105
tp5389
a(V2015-07-28 05:40:23+00:00
p5390
F0.0106
tp5391
a(V2015-07-28 05:48:58+00:00
p5392
F0.0105
tp5393
a(V2015-07-28 06:05:48+00:00
p5394
F0.0104
tp5395
a(V2015-07-28 06:14:23+00:00
p5396
F0.01
tp5397
a(V2015-07-28 06:22:32+00:00
p5398
F0.0098
tp5399
a(V2015-07-28 06:30:32+00:00
p5400
F0.0095
tp5401
a(V2015-07-28 06:55:25+00:00
p5402
F0.0087
tp5403
a(V2015-07-28 07:03:48+00:00
p5404
F0.0086
tp5405
a(V2015-07-28 07:12:16+00:00
p5406
F0.0085
tp5407
a(V2015-07-28 07:20:47+00:00
p5408
F0.0086
tp5409
a(V2015-07-28 07:28:52+00:00
p5410
F0.0097
tp5411
a(V2015-07-28 07:37:21+00:00
p5412
F0.0099
tp5413
a(V2015-07-28 08:02:05+00:00
p5414
F0.0098
tp5415
a(V2015-07-28 08:52:34+00:00
p5416
F0.0094
tp5417
a(V2015-07-28 09:00:38+00:00
p5418
F0.0089
tp5419
a(V2015-07-28 09:09:10+00:00
p5420
F0.0086
tp5421
a(V2015-07-28 09:17:39+00:00
p5422
F0.0085
tp5423
a(V2015-07-28 09:25:59+00:00
p5424
F0.0093
tp5425
a(V2015-07-28 09:34:27+00:00
p5426
F0.0102
tp5427
a(V2015-07-28 09:43:01+00:00
p5428
F0.0104
tp5429
a(V2015-07-28 09:59:43+00:00
p5430
F0.0106
tp5431
a(V2015-07-28 10:08:23+00:00
p5432
F0.0108
tp5433
a(V2015-07-28 10:25:18+00:00
p5434
F0.0109
tp5435
a(V2015-07-28 10:33:39+00:00
p5436
F0.011
tp5437
a(V2015-07-28 10:58:48+00:00
p5438
F0.0109
tp5439
a(V2015-07-28 11:07:09+00:00
p5440
F0.0111
tp5441
a(V2015-07-28 11:15:39+00:00
p5442
F0.0114
tp5443
a(V2015-07-28 11:24:05+00:00
p5444
F0.0112
tp5445
a(V2015-07-28 11:32:25+00:00
p5446
F0.0113
tp5447
a(V2015-07-28 12:07:27+00:00
p5448
F0.0117
tp5449
a(V2015-07-28 12:16:21+00:00
p5450
F0.0122
tp5451
a(V2015-07-28 12:25:28+00:00
p5452
F0.0117
tp5453
a(V2015-07-28 12:34:15+00:00
p5454
F0.0114
tp5455
a(V2015-07-28 12:42:58+00:00
p5456
F0.0111
tp5457
a(V2015-07-28 13:00:03+00:00
p5458
F0.011
tp5459
a(V2015-07-28 13:08:47+00:00
p5460
F0.0111
tp5461
a(V2015-07-28 13:17:18+00:00
p5462
F0.0112
tp5463
a(V2015-07-28 13:26:00+00:00
p5464
F0.0111
tp5465
a(V2015-07-28 13:34:34+00:00
p5466
F0.0112
tp5467
a(V2015-07-28 13:43:08+00:00
p5468
F0.0114
tp5469
a(V2015-07-28 14:00:08+00:00
p5470
F0.0115
tp5471
a(V2015-07-28 14:09:12+00:00
p5472
F0.0114
tp5473
a(V2015-07-28 14:17:54+00:00
p5474
F0.0115
tp5475
a(V2015-07-28 14:26:30+00:00
p5476
F0.0116
tp5477
a(V2015-07-28 14:35:17+00:00
p5478
F0.02
tp5479
a(V2015-07-28 15:46:05+00:00
p5480
F0.0116
tp5481
a(V2015-07-28 15:55:10+00:00
p5482
F0.0115
tp5483
a(V2015-07-28 16:03:54+00:00
p5484
F0.0111
tp5485
a(V2015-07-28 16:39:01+00:00
p5486
F0.02
tp5487
a(V2015-07-28 19:50:00+00:00
p5488
F0.0092
tp5489
a(V2015-07-28 19:59:07+00:00
p5490
F0.009
tp5491
a(V2015-07-28 20:08:57+00:00
p5492
F0.0088
tp5493
a(V2015-07-28 20:18:22+00:00
p5494
F0.01
tp5495
a(V2015-07-28 20:27:42+00:00
p5496
F0.0099
tp5497
a(V2015-07-28 20:37:01+00:00
p5498
F0.0098
tp5499
a(V2015-07-28 20:46:27+00:00
p5500
F0.0097
tp5501
a(V2015-07-28 20:56:21+00:00
p5502
F0.0098
tp5503
a(V2015-07-28 21:14:42+00:00
p5504
F0.0097
tp5505
a(V2015-07-28 21:24:07+00:00
p5506
F0.0098
tp5507
a(V2015-07-28 21:33:43+00:00
p5508
F0.0097
tp5509
a(V2015-07-28 21:42:42+00:00
p5510
F0.0098
tp5511
a(V2015-07-28 22:00:21+00:00
p5512
F0.0091
tp5513
a(V2015-07-28 22:54:25+00:00
p5514
F0.0092
tp5515
a(V2015-07-28 23:03:22+00:00
p5516
F0.009
tp5517
a(V2015-07-28 23:12:05+00:00
p5518
F0.0086
tp5519
a(V2015-07-28 23:20:49+00:00
p5520
F0.0084
tp5521
a(V2015-07-29 00:04:43+00:00
p5522
F0.0083
tp5523
a(V2015-07-29 00:24:05+00:00
p5524
F0.0084
tp5525
a(V2015-07-29 01:09:00+00:00
p5526
F0.0083
tp5527
a(V2015-07-29 01:45:11+00:00
p5528
F0.02
tp5529
a(V2015-07-29 01:53:51+00:00
p5530
F0.0083
tp5531
a(V2015-07-29 02:02:20+00:00
p5532
F0.02
tp5533
a(V2015-07-29 06:20:04+00:00
p5534
F0.0083
tp5535
a(V2015-07-29 06:46:36+00:00
p5536
F0.0085
tp5537
a(V2015-07-29 07:04:12+00:00
p5538
F0.02
tp5539
a(V2015-07-30 07:08:17+00:00
p5540
F0.02
tp5541
a(V2015-07-31 07:11:13+00:00
p5542
F0.02
tp5543
a(V2015-08-01 07:14:34+00:00
p5544
F0.02
tp5545
a(V2015-08-02 07:15:29+00:00
p5546
F0.02
tp5547
a(V2015-08-03 07:19:26+00:00
p5548
F0.02
tp5549
a(V2015-08-03 08:46:00+00:00
p5550
F0.01
tp5551
a(V2015-08-03 19:52:26+00:00
p5552
F0.02
tp5553
a(V2015-08-04 19:52:43+00:00
p5554
F0.02
tp5555
a(V2015-08-05 12:12:09+00:00
p5556
F0.01
tp5557
a(V2015-08-05 14:45:54+00:00
p5558
F0.02
tp5559
a(V2015-08-06 14:50:47+00:00
p5560
F0.02
tp5561
a(V2015-08-07 14:51:10+00:00
p5562
F0.02
tp5563
a(V2015-08-07 20:04:04+00:00
p5564
F0.01
tp5565
a(V2015-08-07 20:09:41+00:00
p5566
F0.02
tp5567
a(V2015-08-08 20:12:08+00:00
p5568
F0.02
tp5569
a(V2015-08-09 20:13:53+00:00
p5570
F0.02
tp5571
a(V2015-08-10 20:14:44+00:00
p5572
F0.02
tp5573
a(V2015-08-11 20:15:24+00:00
p5574
F0.02
tp5575
a(V2015-08-12 20:17:00+00:00
p5576
F0.02
tp5577
a(V2015-08-13 20:18:09+00:00
p5578
F0.02
tp5579
a(V2015-08-14 00:15:49+00:00
p5580
F0.015
tp5581
a(V2015-08-14 17:53:17+00:00
p5582
F0.02
tp5583
a(V2015-08-15 17:55:45+00:00
p5584
F0.02
tp5585
a(V2015-08-16 06:41:51+00:00
p5586
F0.015
tp5587
a(V2015-08-16 07:20:35+00:00
p5588
F0.02
tp5589
a(V2015-08-17 00:04:04+00:00
p5590
F0.012
tp5591
a(V2015-08-17 02:13:29+00:00
p5592
F0.02
tp5593
a(V2015-08-17 10:51:50+00:00
p5594
F0.01
tp5595
a(V2015-08-17 10:57:03+00:00
p5596
F0.02
tp5597
a(V2015-08-17 23:39:19+00:00
p5598
F0.009
tp5599
a(V2015-08-17 23:44:59+00:00
p5600
F0.009
tp5601
a(V2015-08-17 23:50:36+00:00
p5602
F0.009
tp5603
a(V2015-08-18 00:00:53+00:00
p5604
F0.009
tp5605
a(V2015-08-18 00:11:12+00:00
p5606
F0.009
tp5607
a(V2015-08-18 00:16:50+00:00
p5608
F0.009
tp5609
a(V2015-08-18 20:52:50+00:00
p5610
F0.0099
tp5611
a(V2015-08-18 21:16:35+00:00
p5612
F0.009
tp5613
a(V2015-08-19 00:03:01+00:00
p5614
F0.0084
tp5615
a(V2015-08-19 00:34:44+00:00
p5616
F0.0085
tp5617
a(V2015-08-19 01:09:37+00:00
p5618
F0.0084
tp5619
a(V2015-08-19 02:05:27+00:00
p5620
F0.0085
tp5621
a(V2015-08-19 02:10:09+00:00
p5622
F0.0089
tp5623
a(V2015-08-19 02:14:49+00:00
p5624
F0.0095
tp5625
a(V2015-08-19 02:19:24+00:00
p5626
F0.0096
tp5627
a(V2015-08-19 02:24:06+00:00
p5628
F0.0093
tp5629
a(V2015-08-19 02:28:29+00:00
p5630
F0.0091
tp5631
a(V2015-08-19 02:33:05+00:00
p5632
F0.0088
tp5633
a(V2015-08-19 02:46:19+00:00
p5634
F0.0087
tp5635
a(V2015-08-19 02:50:41+00:00
p5636
F0.009
tp5637
a(V2015-08-19 02:55:02+00:00
p5638
F0.0089
tp5639
a(V2015-08-19 02:59:23+00:00
p5640
F0.0088
tp5641
a(V2015-08-19 03:03:52+00:00
p5642
F0.009
tp5643
a(V2015-08-19 03:21:45+00:00
p5644
F0.0091
tp5645
a(V2015-08-19 03:35:03+00:00
p5646
F0.009
tp5647
a(V2015-08-19 03:39:23+00:00
p5648
F0.0089
tp5649
a(V2015-08-19 03:43:47+00:00
p5650
F0.0087
tp5651
a(V2015-08-19 03:48:08+00:00
p5652
F0.0085
tp5653
a(V2015-08-19 03:56:52+00:00
p5654
F0.0084
tp5655
a(V2015-08-19 04:18:28+00:00
p5656
F0.0085
tp5657
a(V2015-08-19 04:22:45+00:00
p5658
F0.0084
tp5659
a(V2015-08-19 04:26:58+00:00
p5660
F0.0085
tp5661
a(V2015-08-19 04:35:37+00:00
p5662
F0.0088
tp5663
a(V2015-08-19 04:44:08+00:00
p5664
F0.009
tp5665
a(V2015-08-19 04:48:25+00:00
p5666
F0.0092
tp5667
a(V2015-08-19 04:52:50+00:00
p5668
F0.0095
tp5669
a(V2015-08-19 04:57:09+00:00
p5670
F0.0096
tp5671
a(V2015-08-19 05:01:28+00:00
p5672
F0.0103
tp5673
a(V2015-08-19 05:14:21+00:00
p5674
F0.0111
tp5675
a(V2015-08-19 05:18:44+00:00
p5676
F0.0112
tp5677
a(V2015-08-19 05:23:05+00:00
p5678
F0.0111
tp5679
a(V2015-08-19 05:31:48+00:00
p5680
F0.0112
tp5681
a(V2015-08-19 05:36:03+00:00
p5682
F0.0111
tp5683
a(V2015-08-19 05:44:53+00:00
p5684
F0.0109
tp5685
a(V2015-08-19 05:53:36+00:00
p5686
F0.0105
tp5687
a(V2015-08-19 05:57:50+00:00
p5688
F0.0096
tp5689
a(V2015-08-19 06:06:36+00:00
p5690
F0.0089
tp5691
a(V2015-08-19 06:11:02+00:00
p5692
F0.0087
tp5693
a(V2015-08-19 06:28:43+00:00
p5694
F0.0088
tp5695
a(V2015-08-19 06:37:25+00:00
p5696
F0.0087
tp5697
a(V2015-08-19 06:41:58+00:00
p5698
F0.0088
tp5699
a(V2015-08-19 06:46:27+00:00
p5700
F0.0086
tp5701
a(V2015-08-19 06:55:12+00:00
p5702
F0.0088
tp5703
a(V2015-08-19 06:59:32+00:00
p5704
F0.009
tp5705
a(V2015-08-19 07:08:19+00:00
p5706
F0.0097
tp5707
a(V2015-08-19 07:17:00+00:00
p5708
F0.0096
tp5709
a(V2015-08-19 07:30:17+00:00
p5710
F0.0097
tp5711
a(V2015-08-19 07:34:49+00:00
p5712
F0.0099
tp5713
a(V2015-08-19 07:48:08+00:00
p5714
F0.0098
tp5715
a(V2015-08-19 08:05:57+00:00
p5716
F0.0097
tp5717
a(V2015-08-19 08:10:27+00:00
p5718
F0.0098
tp5719
a(V2015-08-19 08:27:59+00:00
p5720
F0.01
tp5721
a(V2015-08-19 08:32:25+00:00
p5722
F0.0101
tp5723
a(V2015-08-19 09:15:55+00:00
p5724
F0.0102
tp5725
a(V2015-08-19 09:24:40+00:00
p5726
F0.0101
tp5727
a(V2015-08-19 09:33:33+00:00
p5728
F0.01
tp5729
a(V2015-08-19 09:46:33+00:00
p5730
F0.0101
tp5731
a(V2015-08-19 09:50:59+00:00
p5732
F0.01
tp5733
a(V2015-08-19 09:59:31+00:00
p5734
F0.0099
tp5735
a(V2015-08-19 10:03:55+00:00
p5736
F0.01
tp5737
a(V2015-08-19 10:12:47+00:00
p5738
F0.0101
tp5739
a(V2015-08-19 10:51:50+00:00
p5740
F0.0102
tp5741
a(V2015-08-19 11:04:53+00:00
p5742
F0.0099
tp5743
a(V2015-08-19 11:13:46+00:00
p5744
F0.0103
tp5745
a(V2015-08-19 11:18:12+00:00
p5746
F0.0104
tp5747
a(V2015-08-19 11:22:32+00:00
p5748
F0.0103
tp5749
a(V2015-08-19 11:26:55+00:00
p5750
F0.0099
tp5751
a(V2015-08-19 11:31:13+00:00
p5752
F0.01
tp5753
a(V2015-08-19 11:35:29+00:00
p5754
F0.0102
tp5755
a(V2015-08-19 11:40:06+00:00
p5756
F0.0104
tp5757
a(V2015-08-19 12:02:07+00:00
p5758
F0.0106
tp5759
a(V2015-08-19 12:06:31+00:00
p5760
F0.0107
tp5761
a(V2015-08-19 12:10:53+00:00
p5762
F0.0108
tp5763
a(V2015-08-19 12:15:21+00:00
p5764
F0.0109
tp5765
a(V2015-08-19 12:19:52+00:00
p5766
F0.0108
tp5767
a(V2015-08-19 12:24:14+00:00
p5768
F0.0109
tp5769
a(V2015-08-19 12:33:20+00:00
p5770
F0.0106
tp5771
a(V2015-08-19 12:38:10+00:00
p5772
F0.0103
tp5773
a(V2015-08-19 12:55:48+00:00
p5774
F0.0114
tp5775
a(V2015-08-19 13:00:13+00:00
p5776
F0.0113
tp5777
a(V2015-08-19 13:04:35+00:00
p5778
F0.0104
tp5779
a(V2015-08-19 13:08:50+00:00
p5780
F0.0105
tp5781
a(V2015-08-19 13:17:35+00:00
p5782
F0.0107
tp5783
a(V2015-08-19 13:21:59+00:00
p5784
F0.0111
tp5785
a(V2015-08-19 13:26:21+00:00
p5786
F0.0113
tp5787
a(V2015-08-19 13:35:00+00:00
p5788
F0.0114
tp5789
a(V2015-08-19 13:39:34+00:00
p5790
F0.0113
tp5791
a(V2015-08-19 13:43:58+00:00
p5792
F0.0114
tp5793
a(V2015-08-19 13:48:17+00:00
p5794
F0.0115
tp5795
a(V2015-08-19 13:52:37+00:00
p5796
F0.0113
tp5797
a(V2015-08-19 14:01:13+00:00
p5798
F0.0114
tp5799
a(V2015-08-19 14:05:34+00:00
p5800
F0.0109
tp5801
a(V2015-08-19 14:14:26+00:00
p5802
F0.0106
tp5803
a(V2015-08-19 14:18:50+00:00
p5804
F0.0107
tp5805
a(V2015-08-19 14:23:13+00:00
p5806
F0.0106
tp5807
a(V2015-08-19 14:27:31+00:00
p5808
F0.0105
tp5809
a(V2015-08-19 14:32:05+00:00
p5810
F0.0104
tp5811
a(V2015-08-19 14:36:29+00:00
p5812
F0.0103
tp5813
a(V2015-08-19 14:40:54+00:00
p5814
F0.0105
tp5815
a(V2015-08-19 14:49:52+00:00
p5816
F0.0106
tp5817
a(V2015-08-19 14:54:22+00:00
p5818
F0.0107
tp5819
a(V2015-08-19 15:03:23+00:00
p5820
F0.0109
tp5821
a(V2015-08-19 15:16:30+00:00
p5822
F0.011
tp5823
a(V2015-08-19 15:21:12+00:00
p5824
F0.0109
tp5825
a(V2015-08-19 15:25:45+00:00
p5826
F0.0107
tp5827
a(V2015-08-19 15:30:12+00:00
p5828
F0.0105
tp5829
a(V2015-08-19 15:34:46+00:00
p5830
F0.0099
tp5831
a(V2015-08-19 15:39:19+00:00
p5832
F0.01
tp5833
a(V2015-08-19 15:43:56+00:00
p5834
F0.0096
tp5835
a(V2015-08-19 15:48:24+00:00
p5836
F0.0095
tp5837
a(V2015-08-19 16:02:02+00:00
p5838
F0.0096
tp5839
a(V2015-08-19 16:06:41+00:00
p5840
F0.0095
tp5841
a(V2015-08-19 16:11:10+00:00
p5842
F0.0096
tp5843
a(V2015-08-19 16:29:19+00:00
p5844
F0.0095
tp5845
a(V2015-08-19 16:33:52+00:00
p5846
F0.0093
tp5847
a(V2015-08-19 16:38:38+00:00
p5848
F0.0091
tp5849
a(V2015-08-19 16:47:56+00:00
p5850
F0.0089
tp5851
a(V2015-08-19 16:52:22+00:00
p5852
F0.0088
tp5853
a(V2015-08-19 16:56:49+00:00
p5854
F0.012
tp5855
a(V2015-08-19 22:33:27+00:00
p5856
F0.0088
tp5857
a(V2015-08-19 23:00:56+00:00
p5858
F0.0087
tp5859
a(V2015-08-19 23:09:35+00:00
p5860
F0.0088
tp5861
a(V2015-08-19 23:22:45+00:00
p5862
F0.0089
tp5863
a(V2015-08-19 23:27:06+00:00
p5864
F0.0088
tp5865
a(V2015-08-19 23:35:52+00:00
p5866
F0.0087
tp5867
a(V2015-08-20 00:10:48+00:00
p5868
F0.0086
tp5869
a(V2015-08-20 00:15:11+00:00
p5870
F0.0087
tp5871
a(V2015-08-20 00:24:18+00:00
p5872
F0.0088
tp5873
a(V2015-08-20 00:28:51+00:00
p5874
F0.0087
tp5875
a(V2015-08-20 00:46:24+00:00
p5876
F0.0086
tp5877
a(V2015-08-20 00:50:53+00:00
p5878
F0.0087
tp5879
a(V2015-08-20 01:08:32+00:00
p5880
F0.0086
tp5881
a(V2015-08-20 05:26:34+00:00
p5882
F0.0087
tp5883
a(V2015-08-20 06:56:14+00:00
p5884
F0.0088
tp5885
a(V2015-08-20 07:09:41+00:00
p5886
F0.01
tp5887
a(V2015-08-20 07:14:08+00:00
p5888
F0.0099
tp5889
a(V2015-08-20 07:18:48+00:00
p5890
F0.0105
tp5891
a(V2015-08-20 07:23:18+00:00
p5892
F0.0104
tp5893
a(V2015-08-20 07:27:50+00:00
p5894
F0.0103
tp5895
a(V2015-08-20 07:32:19+00:00
p5896
F0.0107
tp5897
a(V2015-08-20 07:36:51+00:00
p5898
F0.0105
tp5899
a(V2015-08-20 07:41:26+00:00
p5900
F0.0107
tp5901
a(V2015-08-20 07:50:30+00:00
p5902
F0.0108
tp5903
a(V2015-08-20 07:55:01+00:00
p5904
F0.0107
tp5905
a(V2015-08-20 07:59:33+00:00
p5906
F0.0108
tp5907
a(V2015-08-20 08:08:34+00:00
p5908
F0.0109
tp5909
a(V2015-08-20 08:17:50+00:00
p5910
F0.011
tp5911
a(V2015-08-20 08:26:43+00:00
p5912
F0.0109
tp5913
a(V2015-08-20 08:44:41+00:00
p5914
F0.0108
tp5915
a(V2015-08-20 08:58:03+00:00
p5916
F0.0107
tp5917
a(V2015-08-20 09:02:36+00:00
p5918
F0.0106
tp5919
a(V2015-08-20 09:11:27+00:00
p5920
F0.0104
tp5921
a(V2015-08-20 09:20:18+00:00
p5922
F0.0105
tp5923
a(V2015-08-20 09:24:46+00:00
p5924
F0.0106
tp5925
a(V2015-08-20 09:29:12+00:00
p5926
F0.0107
tp5927
a(V2015-08-20 09:33:38+00:00
p5928
F0.0108
tp5929
a(V2015-08-20 09:38:15+00:00
p5930
F0.0109
tp5931
a(V2015-08-20 09:42:39+00:00
p5932
F0.0108
tp5933
a(V2015-08-20 09:47:03+00:00
p5934
F0.0107
tp5935
a(V2015-08-20 09:51:24+00:00
p5936
F0.0106
tp5937
a(V2015-08-20 10:04:41+00:00
p5938
F0.0107
tp5939
a(V2015-08-20 10:09:16+00:00
p5940
F0.0106
tp5941
a(V2015-08-20 10:13:36+00:00
p5942
F0.0101
tp5943
a(V2015-08-20 10:17:59+00:00
p5944
F0.0105
tp5945
a(V2015-08-20 10:22:29+00:00
p5946
F0.0098
tp5947
a(V2015-08-20 10:35:51+00:00
p5948
F0.0091
tp5949
a(V2015-08-20 10:40:22+00:00
p5950
F0.0089
tp5951
a(V2015-08-20 10:58:18+00:00
p5952
F0.0088
tp5953
a(V2015-08-20 11:02:52+00:00
p5954
F0.0089
tp5955
a(V2015-08-20 11:11:50+00:00
p5956
F0.0088
tp5957
a(V2015-08-20 11:16:21+00:00
p5958
F0.0087
tp5959
a(V2015-08-20 11:25:25+00:00
p5960
F0.0088
tp5961
a(V2015-08-20 11:29:52+00:00
p5962
F0.0087
tp5963
a(V2015-08-20 11:47:56+00:00
p5964
F0.0093
tp5965
a(V2015-08-20 12:06:02+00:00
p5966
F0.0104
tp5967
a(V2015-08-20 12:14:55+00:00
p5968
F0.0105
tp5969
a(V2015-08-20 12:23:52+00:00
p5970
F0.0104
tp5971
a(V2015-08-20 12:28:21+00:00
p5972
F0.0105
tp5973
a(V2015-08-20 12:32:56+00:00
p5974
F0.0121
tp5975
a(V2015-08-20 12:37:45+00:00
p5976
F0.012
tp5977
a(V2015-08-20 12:42:14+00:00
p5978
F0.0119
tp5979
a(V2015-08-20 12:51:12+00:00
p5980
F0.012
tp5981
a(V2015-08-20 12:55:32+00:00
p5982
F0.0119
tp5983
a(V2015-08-20 13:00:00+00:00
p5984
F0.0118
tp5985
a(V2015-08-20 13:04:28+00:00
p5986
F0.02
tp5987
a(V2015-08-20 13:31:09+00:00
p5988
F0.0121
tp5989
a(V2015-08-20 13:35:38+00:00
p5990
F0.0123
tp5991
a(V2015-08-20 13:53:52+00:00
p5992
F0.02
tp5993
a(V2015-08-20 18:04:12+00:00
p5994
F0.0081
tp5995
a(V2015-08-20 18:05:12+00:00
p5996
F0.02
tp5997
a(V2015-08-20 18:08:58+00:00
p5998
F0.0081
tp5999
a(V2015-08-20 18:09:51+00:00
p6000
F0.02
tp6001
a(V2015-08-20 18:13:36+00:00
p6002
F0.0081
tp6003
a(V2015-08-20 18:14:29+00:00
p6004
F0.02
tp6005
a(V2015-08-20 18:22:53+00:00
p6006
F0.0081
tp6007
a(V2015-08-20 18:23:43+00:00
p6008
F0.0091
tp6009
a(V2015-08-20 18:27:23+00:00
p6010
F0.0081
tp6011
a(V2015-08-20 18:28:16+00:00
p6012
F0.0092
tp6013
a(V2015-08-20 18:31:53+00:00
p6014
F0.0081
tp6015
a(V2015-08-20 18:32:47+00:00
p6016
F0.0091
tp6017
a(V2015-08-20 18:36:19+00:00
p6018
F0.0081
tp6019
a(V2015-08-20 18:37:14+00:00
p6020
F0.009
tp6021
a(V2015-08-20 18:40:45+00:00
p6022
F0.0081
tp6023
a(V2015-08-20 18:41:36+00:00
p6024
F0.0089
tp6025
a(V2015-08-20 18:45:22+00:00
p6026
F0.0081
tp6027
a(V2015-08-20 18:46:16+00:00
p6028
F0.0096
tp6029
a(V2015-08-20 18:49:54+00:00
p6030
F0.0081
tp6031
a(V2015-08-20 18:50:48+00:00
p6032
F0.0096
tp6033
a(V2015-08-20 18:54:40+00:00
p6034
F0.0081
tp6035
a(V2015-08-20 18:55:34+00:00
p6036
F0.0094
tp6037
a(V2015-08-20 19:04:47+00:00
p6038
F0.0091
tp6039
a(V2015-08-20 19:09:19+00:00
p6040
F0.0092
tp6041
a(V2015-08-20 19:13:59+00:00
p6042
F0.02
tp6043
a(V2015-08-20 20:44:37+00:00
p6044
F0.0089
tp6045
a(V2015-08-20 20:49:13+00:00
p6046
F0.0091
tp6047
a(V2015-08-20 20:53:49+00:00
p6048
F0.02
tp6049
a(V2015-08-20 22:46:39+00:00
p6050
F0.0088
tp6051
a(V2015-08-20 23:10:03+00:00
p6052
F0.0087
tp6053
a(V2015-08-20 23:49:02+00:00
p6054
F0.0086
tp6055
a(V2015-08-20 23:53:24+00:00
p6056
F0.0087
tp6057
a(V2015-08-21 00:15:22+00:00
p6058
F0.0086
tp6059
a(V2015-08-21 00:19:39+00:00
p6060
F0.0087
tp6061
a(V2015-08-21 00:24:04+00:00
p6062
F0.0086
tp6063
a(V2015-08-21 02:21:43+00:00
p6064
F0.0085
tp6065
a(V2015-08-21 02:34:53+00:00
p6066
F0.0086
tp6067
a(V2015-08-21 02:56:14+00:00
p6068
F0.0094
tp6069
a(V2015-08-21 03:09:26+00:00
p6070
F0.0097
tp6071
a(V2015-08-21 03:13:49+00:00
p6072
F0.0098
tp6073
a(V2015-08-21 03:18:10+00:00
p6074
F0.0097
tp6075
a(V2015-08-21 03:26:41+00:00
p6076
F0.0093
tp6077
a(V2015-08-21 03:35:26+00:00
p6078
F0.0091
tp6079
a(V2015-08-21 03:39:43+00:00
p6080
F0.0087
tp6081
a(V2015-08-21 03:48:12+00:00
p6082
F0.0086
tp6083
a(V2015-08-21 03:52:32+00:00
p6084
F0.0089
tp6085
a(V2015-08-21 04:26:50+00:00
p6086
F0.0088
tp6087
a(V2015-08-21 04:39:37+00:00
p6088
F0.0086
tp6089
a(V2015-08-21 04:48:00+00:00
p6090
F0.0085
tp6091
a(V2015-08-21 04:52:19+00:00
p6092
F0.0089
tp6093
a(V2015-08-21 05:04:57+00:00
p6094
F0.0096
tp6095
a(V2015-08-21 05:09:13+00:00
p6096
F0.0099
tp6097
a(V2015-08-21 05:34:39+00:00
p6098
F0.0098
tp6099
a(V2015-08-21 05:38:51+00:00
p6100
F0.0099
tp6101
a(V2015-08-21 06:38:42+00:00
p6102
F0.0097
tp6103
a(V2015-08-21 06:43:03+00:00
p6104
F0.0095
tp6105
a(V2015-08-21 06:47:21+00:00
p6106
F0.0093
tp6107
a(V2015-08-21 06:55:58+00:00
p6108
F0.0092
tp6109
a(V2015-08-21 07:00:17+00:00
p6110
F0.0091
tp6111
a(V2015-08-21 07:04:36+00:00
p6112
F0.0089
tp6113
a(V2015-08-21 07:13:11+00:00
p6114
F0.0088
tp6115
a(V2015-08-21 07:21:48+00:00
p6116
F0.0087
tp6117
a(V2015-08-21 07:39:12+00:00
p6118
F0.0091
tp6119
a(V2015-08-21 07:56:32+00:00
p6120
F0.0092
tp6121
a(V2015-08-21 08:00:49+00:00
p6122
F0.0098
tp6123
a(V2015-08-21 08:05:15+00:00
p6124
F0.0099
tp6125
a(V2015-08-21 08:09:47+00:00
p6126
F0.0098
tp6127
a(V2015-08-21 08:14:12+00:00
p6128
F0.0094
tp6129
a(V2015-08-21 08:18:41+00:00
p6130
F0.0095
tp6131
a(V2015-08-21 08:35:59+00:00
p6132
F0.0093
tp6133
a(V2015-08-21 08:48:54+00:00
p6134
F0.0095
tp6135
a(V2015-08-21 09:01:58+00:00
p6136
F0.0096
tp6137
a(V2015-08-21 09:06:07+00:00
p6138
F0.0094
tp6139
a(V2015-08-21 09:14:55+00:00
p6140
F0.0091
tp6141
a(V2015-08-21 09:19:11+00:00
p6142
F0.0088
tp6143
a(V2015-08-21 09:23:26+00:00
p6144
F0.0087
tp6145
a(V2015-08-21 09:27:43+00:00
p6146
F0.0086
tp6147
a(V2015-08-21 09:36:13+00:00
p6148
F0.0092
tp6149
a(V2015-08-21 09:53:08+00:00
p6150
F0.0106
tp6151
a(V2015-08-21 09:57:24+00:00
p6152
F0.0108
tp6153
a(V2015-08-21 10:01:37+00:00
p6154
F0.011
tp6155
a(V2015-08-21 10:06:00+00:00
p6156
F0.0109
tp6157
a(V2015-08-21 10:14:38+00:00
p6158
F0.011
tp6159
a(V2015-08-21 10:27:32+00:00
p6160
F0.0111
tp6161
a(V2015-08-21 10:44:45+00:00
p6162
F0.011
tp6163
a(V2015-08-21 10:49:03+00:00
p6164
F0.0111
tp6165
a(V2015-08-21 10:53:18+00:00
p6166
F0.011
tp6167
a(V2015-08-21 11:01:51+00:00
p6168
F0.0111
tp6169
a(V2015-08-21 11:06:16+00:00
p6170
F0.0113
tp6171
a(V2015-08-21 11:15:00+00:00
p6172
F0.0111
tp6173
a(V2015-08-21 11:19:30+00:00
p6174
F0.0112
tp6175
a(V2015-08-21 11:36:46+00:00
p6176
F0.0114
tp6177
a(V2015-08-21 11:58:13+00:00
p6178
F0.0115
tp6179
a(V2015-08-21 12:02:39+00:00
p6180
F0.0117
tp6181
a(V2015-08-21 12:07:01+00:00
p6182
F0.0118
tp6183
a(V2015-08-21 12:11:20+00:00
p6184
F0.012
tp6185
a(V2015-08-21 12:15:41+00:00
p6186
F0.0121
tp6187
a(V2015-08-21 12:33:11+00:00
p6188
F0.0122
tp6189
a(V2015-08-21 12:37:50+00:00
p6190
F0.0121
tp6191
a(V2015-08-21 12:42:14+00:00
p6192
F0.0122
tp6193
a(V2015-08-21 12:46:42+00:00
p6194
F0.0121
tp6195
a(V2015-08-21 12:51:08+00:00
p6196
F0.0122
tp6197
a(V2015-08-21 12:55:31+00:00
p6198
F0.0121
tp6199
a(V2015-08-21 13:04:17+00:00
p6200
F0.0122
tp6201
a(V2015-08-21 13:08:44+00:00
p6202
F0.0123
tp6203
a(V2015-08-21 13:13:03+00:00
p6204
F0.02
tp6205
a(V2015-08-22 04:26:38+00:00
p6206
F0.0084
tp6207
a(V2015-08-22 12:30:48+00:00
p6208
F0.02
tp6209
a(V2015-08-23 00:45:24+00:00
p6210
F0.0084
tp6211
a(V2015-08-23 02:02:01+00:00
p6212
F0.02
tp6213
a(V2015-08-23 04:33:20+00:00
p6214
F0.0084
tp6215
a(V2015-08-23 12:05:40+00:00
p6216
F0.02
tp6217
a(V2015-08-23 12:08:18+00:00
p6218
F0.0084
tp6219
a(V2015-08-23 12:10:51+00:00
p6220
F0.02
tp6221
a(V2015-08-24 04:32:33+00:00
p6222
F0.0084
tp6223
a(V2015-08-24 04:50:20+00:00
p6224
F0.0087
tp6225
a(V2015-08-24 04:52:53+00:00
p6226
F0.009
tp6227
a(V2015-08-24 04:55:27+00:00
p6228
F0.0091
tp6229
a(V2015-08-24 05:00:29+00:00
p6230
F0.0093
tp6231
a(V2015-08-24 05:05:41+00:00
p6232
F0.0096
tp6233
a(V2015-08-24 05:10:40+00:00
p6234
F0.01
tp6235
a(V2015-08-24 05:13:08+00:00
p6236
F0.0101
tp6237
a(V2015-08-24 05:15:41+00:00
p6238
F0.01
tp6239
a(V2015-08-24 05:18:08+00:00
p6240
F0.0103
tp6241
a(V2015-08-24 05:25:43+00:00
p6242
F0.0106
tp6243
a(V2015-08-24 05:28:16+00:00
p6244
F0.0107
tp6245
a(V2015-08-24 05:50:41+00:00
p6246
F0.0106
tp6247
a(V2015-08-24 06:00:27+00:00
p6248
F0.0104
tp6249
a(V2015-08-24 06:05:31+00:00
p6250
F0.0105
tp6251
a(V2015-08-24 06:15:20+00:00
p6252
F0.0104
tp6253
a(V2015-08-24 06:20:12+00:00
p6254
F0.0098
tp6255
a(V2015-08-24 06:27:38+00:00
p6256
F0.0092
tp6257
a(V2015-08-24 06:32:33+00:00
p6258
F0.0089
tp6259
a(V2015-08-24 06:39:57+00:00
p6260
F0.0087
tp6261
a(V2015-08-24 06:42:27+00:00
p6262
F0.0088
tp6263
a(V2015-08-24 06:44:57+00:00
p6264
F0.0087
tp6265
a(V2015-08-24 06:49:48+00:00
p6266
F0.0086
tp6267
a(V2015-08-24 06:52:16+00:00
p6268
F0.0087
tp6269
a(V2015-08-24 06:57:13+00:00
p6270
F0.0086
tp6271
a(V2015-08-24 08:00:17+00:00
p6272
F0.0087
tp6273
a(V2015-08-24 08:02:46+00:00
p6274
F0.0088
tp6275
a(V2015-08-24 08:26:24+00:00
p6276
F0.0087
tp6277
a(V2015-08-24 08:51:45+00:00
p6278
F0.0086
tp6279
a(V2015-08-24 09:27:22+00:00
p6280
F0.0085
tp6281
a(V2015-08-24 10:27:22+00:00
p6282
F0.0086
tp6283
a(V2015-08-24 10:29:51+00:00
p6284
F0.0085
tp6285
a(V2015-08-24 10:32:25+00:00
p6286
F0.0086
tp6287
a(V2015-08-24 11:57:35+00:00
p6288
F0.01
tp6289
a(V2015-08-25 03:45:37+00:00
p6290
F0.0085
tp6291
a(V2015-08-25 04:03:23+00:00
p6292
F0.0084
tp6293
a(V2015-08-25 04:44:17+00:00
p6294
F0.0085
tp6295
a(V2015-08-25 04:46:59+00:00
p6296
F0.0088
tp6297
a(V2015-08-25 04:49:32+00:00
p6298
F0.0089
tp6299
a(V2015-08-25 04:54:38+00:00
p6300
F0.0088
tp6301
a(V2015-08-25 05:02:12+00:00
p6302
F0.0087
tp6303
a(V2015-08-25 05:04:53+00:00
p6304
F0.0088
tp6305
a(V2015-08-25 05:07:30+00:00
p6306
F0.0094
tp6307
a(V2015-08-25 05:10:03+00:00
p6308
F0.0093
tp6309
a(V2015-08-25 05:15:08+00:00
p6310
F0.0094
tp6311
a(V2015-08-25 05:43:14+00:00
p6312
F0.009
tp6313
a(V2015-08-25 05:48:24+00:00
p6314
F0.0087
tp6315
a(V2015-08-25 05:56:03+00:00
p6316
F0.0085
tp6317
a(V2015-08-25 10:06:01+00:00
p6318
F0.0086
tp6319
a(V2015-08-25 10:11:04+00:00
p6320
F0.0085
tp6321
a(V2015-08-25 10:13:40+00:00
p6322
F0.0086
tp6323
a(V2015-08-25 10:23:47+00:00
p6324
F0.0085
tp6325
a(V2015-08-25 10:26:20+00:00
p6326
F0.0086
tp6327
a(V2015-08-25 11:06:49+00:00
p6328
F0.01
tp6329
a(V2015-08-26 06:13:27+00:00
p6330
F0.0085
tp6331
a(V2015-08-26 06:16:02+00:00
p6332
F0.01
tp6333
a(V2015-08-26 06:18:44+00:00
p6334
F0.0085
tp6335
a(V2015-08-26 08:49:33+00:00
p6336
F0.0086
tp6337
a(V2015-08-26 08:54:31+00:00
p6338
F0.0085
tp6339
a(V2015-08-26 09:12:29+00:00
p6340
F0.0086
tp6341
a(V2015-08-26 09:14:58+00:00
p6342
F0.0088
tp6343
a(V2015-08-26 09:20:07+00:00
p6344
F0.0089
tp6345
a(V2015-08-26 09:45:47+00:00
p6346
F0.0088
tp6347
a(V2015-08-26 09:53:30+00:00
p6348
F0.0086
tp6349
a(V2015-08-26 10:19:27+00:00
p6350
F0.0088
tp6351
a(V2015-08-26 10:21:59+00:00
p6352
F0.0089
tp6353
a(V2015-08-26 10:27:07+00:00
p6354
F0.0088
tp6355
a(V2015-08-26 10:32:14+00:00
p6356
F0.0089
tp6357
a(V2015-08-26 10:34:49+00:00
p6358
F0.01
tp6359
a(V2015-08-27 06:13:43+00:00
p6360
F0.0086
tp6361
a(V2015-08-27 06:16:39+00:00
p6362
F0.01
tp6363
a(V2015-08-27 06:19:36+00:00
p6364
F0.0086
tp6365
a(V2015-08-27 06:22:32+00:00
p6366
F0.01
tp6367
a(V2015-08-27 06:31:29+00:00
p6368
F0.0086
tp6369
a(V2015-08-27 07:03:39+00:00
p6370
F0.0088
tp6371
a(V2015-08-27 07:30:11+00:00
p6372
F0.0091
tp6373
a(V2015-08-27 07:33:09+00:00
p6374
F0.0097
tp6375
a(V2015-08-27 07:36:04+00:00
p6376
F0.0102
tp6377
a(V2015-08-27 07:44:51+00:00
p6378
F0.0101
tp6379
a(V2015-08-27 07:50:40+00:00
p6380
F0.0098
tp6381
a(V2015-08-27 07:56:30+00:00
p6382
F0.0097
tp6383
a(V2015-08-27 08:02:24+00:00
p6384
F0.0098
tp6385
a(V2015-08-27 08:05:26+00:00
p6386
F0.0097
tp6387
a(V2015-08-27 08:11:28+00:00
p6388
F0.0096
tp6389
a(V2015-08-27 08:14:27+00:00
p6390
F0.0097
tp6391
a(V2015-08-27 08:17:24+00:00
p6392
F0.0098
tp6393
a(V2015-08-27 08:20:23+00:00
p6394
F0.011
tp6395
a(V2015-08-27 15:28:38+00:00
p6396
F0.01
tp6397
a(V2015-08-27 15:31:30+00:00
p6398
F0.011
tp6399
a(V2015-08-28 05:17:05+00:00
p6400
F0.0085
tp6401
a(V2015-08-28 05:20:03+00:00
p6402
F0.011
tp6403
a(V2015-08-28 06:35:08+00:00
p6404
F0.0086
tp6405
a(V2015-08-28 06:46:34+00:00
p6406
F0.011
tp6407
a(V2015-08-28 06:49:25+00:00
p6408
F0.0086
tp6409
a(V2015-08-28 07:32:26+00:00
p6410
F0.0087
tp6411
a(V2015-08-28 07:35:26+00:00
p6412
F0.009
tp6413
a(V2015-08-28 07:38:07+00:00
p6414
F0.01
tp6415
a(V2015-08-28 07:46:43+00:00
p6416
F0.009
tp6417
a(V2015-08-28 07:52:24+00:00
p6418
F0.01
tp6419
a(V2015-08-28 08:38:37+00:00
p6420
F0.009
tp6421
a(V2015-08-28 08:53:06+00:00
p6422
F0.0088
tp6423
a(V2015-08-28 08:55:55+00:00
p6424
F0.0087
tp6425
a(V2015-08-28 09:01:40+00:00
p6426
F0.01
tp6427
a(V2015-08-28 09:04:25+00:00
p6428
F0.0087
tp6429
a(V2015-08-28 09:07:18+00:00
p6430
F0.01
tp6431
a(V2015-08-28 10:12:44+00:00
p6432
F0.0087
tp6433
a(V2015-08-28 10:18:26+00:00
p6434
F0.01
tp6435
a(V2015-08-29 10:20:53+00:00
p6436
F0.01
tp6437
a(V2015-08-30 10:22:50+00:00
p6438
F0.01
tp6439
a(V2015-08-31 10:24:15+00:00
p6440
F0.01
tp6441
aV0.067
p6442
tp6443
.